ARM GAS  /tmp/ccpEjOub.s 			page 1


   1              		.cpu cortex-m3
   2              		.eabi_attribute 20, 1
   3              		.eabi_attribute 21, 1
   4              		.eabi_attribute 23, 3
   5              		.eabi_attribute 24, 1
   6              		.eabi_attribute 25, 1
   7              		.eabi_attribute 26, 1
   8              		.eabi_attribute 30, 6
   9              		.eabi_attribute 34, 1
  10              		.eabi_attribute 18, 4
  11              		.file	"motor.c"
  12              		.text
  13              	.Ltext0:
  14              		.cfi_sections	.debug_frame
  15              		.section	.text.clip_q63_to_q31,"ax",%progbits
  16              		.align	1
  17              		.arch armv7-m
  18              		.syntax unified
  19              		.thumb
  20              		.thumb_func
  21              		.fpu softvfp
  23              	clip_q63_to_q31:
  24              	.LFB44:
  25              		.file 1 "Core/Inc/arm_math.h"
   1:Core/Inc/arm_math.h **** /* ----------------------------------------------------------------------
   2:Core/Inc/arm_math.h **** * Copyright (C) 2010-2015 ARM Limited. All rights reserved.
   3:Core/Inc/arm_math.h **** *
   4:Core/Inc/arm_math.h **** * $Date:        20. October 2015
   5:Core/Inc/arm_math.h **** * $Revision:    V1.4.5 b
   6:Core/Inc/arm_math.h **** *
   7:Core/Inc/arm_math.h **** * Project:      CMSIS DSP Library
   8:Core/Inc/arm_math.h **** * Title:        arm_math.h
   9:Core/Inc/arm_math.h **** *
  10:Core/Inc/arm_math.h **** * Description:  Public header file for CMSIS DSP Library
  11:Core/Inc/arm_math.h **** *
  12:Core/Inc/arm_math.h **** * Target Processor: Cortex-M7/Cortex-M4/Cortex-M3/Cortex-M0
  13:Core/Inc/arm_math.h **** *
  14:Core/Inc/arm_math.h **** * Redistribution and use in source and binary forms, with or without
  15:Core/Inc/arm_math.h **** * modification, are permitted provided that the following conditions
  16:Core/Inc/arm_math.h **** * are met:
  17:Core/Inc/arm_math.h **** *   - Redistributions of source code must retain the above copyright
  18:Core/Inc/arm_math.h **** *     notice, this list of conditions and the following disclaimer.
  19:Core/Inc/arm_math.h **** *   - Redistributions in binary form must reproduce the above copyright
  20:Core/Inc/arm_math.h **** *     notice, this list of conditions and the following disclaimer in
  21:Core/Inc/arm_math.h **** *     the documentation and/or other materials provided with the
  22:Core/Inc/arm_math.h **** *     distribution.
  23:Core/Inc/arm_math.h **** *   - Neither the name of ARM LIMITED nor the names of its contributors
  24:Core/Inc/arm_math.h **** *     may be used to endorse or promote products derived from this
  25:Core/Inc/arm_math.h **** *     software without specific prior written permission.
  26:Core/Inc/arm_math.h **** *
  27:Core/Inc/arm_math.h **** * THIS SOFTWARE IS PROVIDED BY THE COPYRIGHT HOLDERS AND CONTRIBUTORS
  28:Core/Inc/arm_math.h **** * "AS IS" AND ANY EXPRESS OR IMPLIED WARRANTIES, INCLUDING, BUT NOT
  29:Core/Inc/arm_math.h **** * LIMITED TO, THE IMPLIED WARRANTIES OF MERCHANTABILITY AND FITNESS
  30:Core/Inc/arm_math.h **** * FOR A PARTICULAR PURPOSE ARE DISCLAIMED. IN NO EVENT SHALL THE
  31:Core/Inc/arm_math.h **** * COPYRIGHT OWNER OR CONTRIBUTORS BE LIABLE FOR ANY DIRECT, INDIRECT,
  32:Core/Inc/arm_math.h **** * INCIDENTAL, SPECIAL, EXEMPLARY, OR CONSEQUENTIAL DAMAGES (INCLUDING,
  33:Core/Inc/arm_math.h **** * BUT NOT LIMITED TO, PROCUREMENT OF SUBSTITUTE GOODS OR SERVICES;
ARM GAS  /tmp/ccpEjOub.s 			page 2


  34:Core/Inc/arm_math.h **** * LOSS OF USE, DATA, OR PROFITS; OR BUSINESS INTERRUPTION) HOWEVER
  35:Core/Inc/arm_math.h **** * CAUSED AND ON ANY THEORY OF LIABILITY, WHETHER IN CONTRACT, STRICT
  36:Core/Inc/arm_math.h **** * LIABILITY, OR TORT (INCLUDING NEGLIGENCE OR OTHERWISE) ARISING IN
  37:Core/Inc/arm_math.h **** * ANY WAY OUT OF THE USE OF THIS SOFTWARE, EVEN IF ADVISED OF THE
  38:Core/Inc/arm_math.h **** * POSSIBILITY OF SUCH DAMAGE.
  39:Core/Inc/arm_math.h ****  * -------------------------------------------------------------------- */
  40:Core/Inc/arm_math.h **** 
  41:Core/Inc/arm_math.h **** /**
  42:Core/Inc/arm_math.h ****    \mainpage CMSIS DSP Software Library
  43:Core/Inc/arm_math.h ****    *
  44:Core/Inc/arm_math.h ****    * Introduction
  45:Core/Inc/arm_math.h ****    * ------------
  46:Core/Inc/arm_math.h ****    *
  47:Core/Inc/arm_math.h ****    * This user manual describes the CMSIS DSP software library,
  48:Core/Inc/arm_math.h ****    * a suite of common signal processing functions for use on Cortex-M processor based devices.
  49:Core/Inc/arm_math.h ****    *
  50:Core/Inc/arm_math.h ****    * The library is divided into a number of functions each covering a specific category:
  51:Core/Inc/arm_math.h ****    * - Basic math functions
  52:Core/Inc/arm_math.h ****    * - Fast math functions
  53:Core/Inc/arm_math.h ****    * - Complex math functions
  54:Core/Inc/arm_math.h ****    * - Filters
  55:Core/Inc/arm_math.h ****    * - Matrix functions
  56:Core/Inc/arm_math.h ****    * - Transforms
  57:Core/Inc/arm_math.h ****    * - Motor control functions
  58:Core/Inc/arm_math.h ****    * - Statistical functions
  59:Core/Inc/arm_math.h ****    * - Support functions
  60:Core/Inc/arm_math.h ****    * - Interpolation functions
  61:Core/Inc/arm_math.h ****    *
  62:Core/Inc/arm_math.h ****    * The library has separate functions for operating on 8-bit integers, 16-bit integers,
  63:Core/Inc/arm_math.h ****    * 32-bit integer and 32-bit floating-point values.
  64:Core/Inc/arm_math.h ****    *
  65:Core/Inc/arm_math.h ****    * Using the Library
  66:Core/Inc/arm_math.h ****    * ------------
  67:Core/Inc/arm_math.h ****    *
  68:Core/Inc/arm_math.h ****    * The library installer contains prebuilt versions of the libraries in the <code>Lib</code> fold
  69:Core/Inc/arm_math.h ****    * - arm_cortexM7lfdp_math.lib (Little endian and Double Precision Floating Point Unit on Cortex-
  70:Core/Inc/arm_math.h ****    * - arm_cortexM7bfdp_math.lib (Big endian and Double Precision Floating Point Unit on Cortex-M7)
  71:Core/Inc/arm_math.h ****    * - arm_cortexM7lfsp_math.lib (Little endian and Single Precision Floating Point Unit on Cortex-
  72:Core/Inc/arm_math.h ****    * - arm_cortexM7bfsp_math.lib (Big endian and Single Precision Floating Point Unit on Cortex-M7)
  73:Core/Inc/arm_math.h ****    * - arm_cortexM7l_math.lib (Little endian on Cortex-M7)
  74:Core/Inc/arm_math.h ****    * - arm_cortexM7b_math.lib (Big endian on Cortex-M7)
  75:Core/Inc/arm_math.h ****    * - arm_cortexM4lf_math.lib (Little endian and Floating Point Unit on Cortex-M4)
  76:Core/Inc/arm_math.h ****    * - arm_cortexM4bf_math.lib (Big endian and Floating Point Unit on Cortex-M4)
  77:Core/Inc/arm_math.h ****    * - arm_cortexM4l_math.lib (Little endian on Cortex-M4)
  78:Core/Inc/arm_math.h ****    * - arm_cortexM4b_math.lib (Big endian on Cortex-M4)
  79:Core/Inc/arm_math.h ****    * - arm_cortexM3l_math.lib (Little endian on Cortex-M3)
  80:Core/Inc/arm_math.h ****    * - arm_cortexM3b_math.lib (Big endian on Cortex-M3)
  81:Core/Inc/arm_math.h ****    * - arm_cortexM0l_math.lib (Little endian on Cortex-M0 / CortexM0+)
  82:Core/Inc/arm_math.h ****    * - arm_cortexM0b_math.lib (Big endian on Cortex-M0 / CortexM0+)
  83:Core/Inc/arm_math.h ****    *
  84:Core/Inc/arm_math.h ****    * The library functions are declared in the public file <code>arm_math.h</code> which is placed 
  85:Core/Inc/arm_math.h ****    * Simply include this file and link the appropriate library in the application and begin calling
  86:Core/Inc/arm_math.h ****    * public header file <code> arm_math.h</code> for Cortex-M7/M4/M3/M0/M0+ with little endian and 
  87:Core/Inc/arm_math.h ****    * Define the appropriate pre processor MACRO ARM_MATH_CM7 or ARM_MATH_CM4 or  ARM_MATH_CM3 or
  88:Core/Inc/arm_math.h ****    * ARM_MATH_CM0 or ARM_MATH_CM0PLUS depending on the target processor in the application.
  89:Core/Inc/arm_math.h ****    *
  90:Core/Inc/arm_math.h ****    * Examples
ARM GAS  /tmp/ccpEjOub.s 			page 3


  91:Core/Inc/arm_math.h ****    * --------
  92:Core/Inc/arm_math.h ****    *
  93:Core/Inc/arm_math.h ****    * The library ships with a number of examples which demonstrate how to use the library functions
  94:Core/Inc/arm_math.h ****    *
  95:Core/Inc/arm_math.h ****    * Toolchain Support
  96:Core/Inc/arm_math.h ****    * ------------
  97:Core/Inc/arm_math.h ****    *
  98:Core/Inc/arm_math.h ****    * The library has been developed and tested with MDK-ARM version 5.14.0.0
  99:Core/Inc/arm_math.h ****    * The library is being tested in GCC and IAR toolchains and updates on this activity will be mad
 100:Core/Inc/arm_math.h ****    *
 101:Core/Inc/arm_math.h ****    * Building the Library
 102:Core/Inc/arm_math.h ****    * ------------
 103:Core/Inc/arm_math.h ****    *
 104:Core/Inc/arm_math.h ****    * The library installer contains a project file to re build libraries on MDK-ARM Tool chain in t
 105:Core/Inc/arm_math.h ****    * - arm_cortexM_math.uvprojx
 106:Core/Inc/arm_math.h ****    *
 107:Core/Inc/arm_math.h ****    *
 108:Core/Inc/arm_math.h ****    * The libraries can be built by opening the arm_cortexM_math.uvprojx project in MDK-ARM, selecti
 109:Core/Inc/arm_math.h ****    *
 110:Core/Inc/arm_math.h ****    * Pre-processor Macros
 111:Core/Inc/arm_math.h ****    * ------------
 112:Core/Inc/arm_math.h ****    *
 113:Core/Inc/arm_math.h ****    * Each library project have differant pre-processor macros.
 114:Core/Inc/arm_math.h ****    *
 115:Core/Inc/arm_math.h ****    * - UNALIGNED_SUPPORT_DISABLE:
 116:Core/Inc/arm_math.h ****    *
 117:Core/Inc/arm_math.h ****    * Define macro UNALIGNED_SUPPORT_DISABLE, If the silicon does not support unaligned memory acces
 118:Core/Inc/arm_math.h ****    *
 119:Core/Inc/arm_math.h ****    * - ARM_MATH_BIG_ENDIAN:
 120:Core/Inc/arm_math.h ****    *
 121:Core/Inc/arm_math.h ****    * Define macro ARM_MATH_BIG_ENDIAN to build the library for big endian targets. By default libra
 122:Core/Inc/arm_math.h ****    *
 123:Core/Inc/arm_math.h ****    * - ARM_MATH_MATRIX_CHECK:
 124:Core/Inc/arm_math.h ****    *
 125:Core/Inc/arm_math.h ****    * Define macro ARM_MATH_MATRIX_CHECK for checking on the input and output sizes of matrices
 126:Core/Inc/arm_math.h ****    *
 127:Core/Inc/arm_math.h ****    * - ARM_MATH_ROUNDING:
 128:Core/Inc/arm_math.h ****    *
 129:Core/Inc/arm_math.h ****    * Define macro ARM_MATH_ROUNDING for rounding on support functions
 130:Core/Inc/arm_math.h ****    *
 131:Core/Inc/arm_math.h ****    * - ARM_MATH_CMx:
 132:Core/Inc/arm_math.h ****    *
 133:Core/Inc/arm_math.h ****    * Define macro ARM_MATH_CM4 for building the library on Cortex-M4 target, ARM_MATH_CM3 for build
 134:Core/Inc/arm_math.h ****    * and ARM_MATH_CM0 for building library on Cortex-M0 target, ARM_MATH_CM0PLUS for building libra
 135:Core/Inc/arm_math.h ****    * ARM_MATH_CM7 for building the library on cortex-M7.
 136:Core/Inc/arm_math.h ****    *
 137:Core/Inc/arm_math.h ****    * - __FPU_PRESENT:
 138:Core/Inc/arm_math.h ****    *
 139:Core/Inc/arm_math.h ****    * Initialize macro __FPU_PRESENT = 1 when building on FPU supported Targets. Enable this macro f
 140:Core/Inc/arm_math.h ****    *
 141:Core/Inc/arm_math.h ****    * <hr>
 142:Core/Inc/arm_math.h ****    * CMSIS-DSP in ARM::CMSIS Pack
 143:Core/Inc/arm_math.h ****    * -----------------------------
 144:Core/Inc/arm_math.h ****    *
 145:Core/Inc/arm_math.h ****    * The following files relevant to CMSIS-DSP are present in the <b>ARM::CMSIS</b> Pack directorie
 146:Core/Inc/arm_math.h ****    * |File/Folder                   |Content                                                       
 147:Core/Inc/arm_math.h ****    * |------------------------------|--------------------------------------------------------------
ARM GAS  /tmp/ccpEjOub.s 			page 4


 148:Core/Inc/arm_math.h ****    * |\b CMSIS\\Documentation\\DSP  | This documentation                                           
 149:Core/Inc/arm_math.h ****    * |\b CMSIS\\DSP_Lib             | Software license agreement (license.txt)                     
 150:Core/Inc/arm_math.h ****    * |\b CMSIS\\DSP_Lib\\Examples   | Example projects demonstrating the usage of the library funct
 151:Core/Inc/arm_math.h ****    * |\b CMSIS\\DSP_Lib\\Source     | Source files for rebuilding the library                      
 152:Core/Inc/arm_math.h ****    *
 153:Core/Inc/arm_math.h ****    * <hr>
 154:Core/Inc/arm_math.h ****    * Revision History of CMSIS-DSP
 155:Core/Inc/arm_math.h ****    * ------------
 156:Core/Inc/arm_math.h ****    * Please refer to \ref ChangeLog_pg.
 157:Core/Inc/arm_math.h ****    *
 158:Core/Inc/arm_math.h ****    * Copyright Notice
 159:Core/Inc/arm_math.h ****    * ------------
 160:Core/Inc/arm_math.h ****    *
 161:Core/Inc/arm_math.h ****    * Copyright (C) 2010-2015 ARM Limited. All rights reserved.
 162:Core/Inc/arm_math.h ****    */
 163:Core/Inc/arm_math.h **** 
 164:Core/Inc/arm_math.h **** 
 165:Core/Inc/arm_math.h **** /**
 166:Core/Inc/arm_math.h ****  * @defgroup groupMath Basic Math Functions
 167:Core/Inc/arm_math.h ****  */
 168:Core/Inc/arm_math.h **** 
 169:Core/Inc/arm_math.h **** /**
 170:Core/Inc/arm_math.h ****  * @defgroup groupFastMath Fast Math Functions
 171:Core/Inc/arm_math.h ****  * This set of functions provides a fast approximation to sine, cosine, and square root.
 172:Core/Inc/arm_math.h ****  * As compared to most of the other functions in the CMSIS math library, the fast math functions
 173:Core/Inc/arm_math.h ****  * operate on individual values and not arrays.
 174:Core/Inc/arm_math.h ****  * There are separate functions for Q15, Q31, and floating-point data.
 175:Core/Inc/arm_math.h ****  *
 176:Core/Inc/arm_math.h ****  */
 177:Core/Inc/arm_math.h **** 
 178:Core/Inc/arm_math.h **** /**
 179:Core/Inc/arm_math.h ****  * @defgroup groupCmplxMath Complex Math Functions
 180:Core/Inc/arm_math.h ****  * This set of functions operates on complex data vectors.
 181:Core/Inc/arm_math.h ****  * The data in the complex arrays is stored in an interleaved fashion
 182:Core/Inc/arm_math.h ****  * (real, imag, real, imag, ...).
 183:Core/Inc/arm_math.h ****  * In the API functions, the number of samples in a complex array refers
 184:Core/Inc/arm_math.h ****  * to the number of complex values; the array contains twice this number of
 185:Core/Inc/arm_math.h ****  * real values.
 186:Core/Inc/arm_math.h ****  */
 187:Core/Inc/arm_math.h **** 
 188:Core/Inc/arm_math.h **** /**
 189:Core/Inc/arm_math.h ****  * @defgroup groupFilters Filtering Functions
 190:Core/Inc/arm_math.h ****  */
 191:Core/Inc/arm_math.h **** 
 192:Core/Inc/arm_math.h **** /**
 193:Core/Inc/arm_math.h ****  * @defgroup groupMatrix Matrix Functions
 194:Core/Inc/arm_math.h ****  *
 195:Core/Inc/arm_math.h ****  * This set of functions provides basic matrix math operations.
 196:Core/Inc/arm_math.h ****  * The functions operate on matrix data structures.  For example,
 197:Core/Inc/arm_math.h ****  * the type
 198:Core/Inc/arm_math.h ****  * definition for the floating-point matrix structure is shown
 199:Core/Inc/arm_math.h ****  * below:
 200:Core/Inc/arm_math.h ****  * <pre>
 201:Core/Inc/arm_math.h ****  *     typedef struct
 202:Core/Inc/arm_math.h ****  *     {
 203:Core/Inc/arm_math.h ****  *       uint16_t numRows;     // number of rows of the matrix.
 204:Core/Inc/arm_math.h ****  *       uint16_t numCols;     // number of columns of the matrix.
ARM GAS  /tmp/ccpEjOub.s 			page 5


 205:Core/Inc/arm_math.h ****  *       float32_t *pData;     // points to the data of the matrix.
 206:Core/Inc/arm_math.h ****  *     } arm_matrix_instance_f32;
 207:Core/Inc/arm_math.h ****  * </pre>
 208:Core/Inc/arm_math.h ****  * There are similar definitions for Q15 and Q31 data types.
 209:Core/Inc/arm_math.h ****  *
 210:Core/Inc/arm_math.h ****  * The structure specifies the size of the matrix and then points to
 211:Core/Inc/arm_math.h ****  * an array of data.  The array is of size <code>numRows X numCols</code>
 212:Core/Inc/arm_math.h ****  * and the values are arranged in row order.  That is, the
 213:Core/Inc/arm_math.h ****  * matrix element (i, j) is stored at:
 214:Core/Inc/arm_math.h ****  * <pre>
 215:Core/Inc/arm_math.h ****  *     pData[i*numCols + j]
 216:Core/Inc/arm_math.h ****  * </pre>
 217:Core/Inc/arm_math.h ****  *
 218:Core/Inc/arm_math.h ****  * \par Init Functions
 219:Core/Inc/arm_math.h ****  * There is an associated initialization function for each type of matrix
 220:Core/Inc/arm_math.h ****  * data structure.
 221:Core/Inc/arm_math.h ****  * The initialization function sets the values of the internal structure fields.
 222:Core/Inc/arm_math.h ****  * Refer to the function <code>arm_mat_init_f32()</code>, <code>arm_mat_init_q31()</code>
 223:Core/Inc/arm_math.h ****  * and <code>arm_mat_init_q15()</code> for floating-point, Q31 and Q15 types,  respectively.
 224:Core/Inc/arm_math.h ****  *
 225:Core/Inc/arm_math.h ****  * \par
 226:Core/Inc/arm_math.h ****  * Use of the initialization function is optional. However, if initialization function is used
 227:Core/Inc/arm_math.h ****  * then the instance structure cannot be placed into a const data section.
 228:Core/Inc/arm_math.h ****  * To place the instance structure in a const data
 229:Core/Inc/arm_math.h ****  * section, manually initialize the data structure.  For example:
 230:Core/Inc/arm_math.h ****  * <pre>
 231:Core/Inc/arm_math.h ****  * <code>arm_matrix_instance_f32 S = {nRows, nColumns, pData};</code>
 232:Core/Inc/arm_math.h ****  * <code>arm_matrix_instance_q31 S = {nRows, nColumns, pData};</code>
 233:Core/Inc/arm_math.h ****  * <code>arm_matrix_instance_q15 S = {nRows, nColumns, pData};</code>
 234:Core/Inc/arm_math.h ****  * </pre>
 235:Core/Inc/arm_math.h ****  * where <code>nRows</code> specifies the number of rows, <code>nColumns</code>
 236:Core/Inc/arm_math.h ****  * specifies the number of columns, and <code>pData</code> points to the
 237:Core/Inc/arm_math.h ****  * data array.
 238:Core/Inc/arm_math.h ****  *
 239:Core/Inc/arm_math.h ****  * \par Size Checking
 240:Core/Inc/arm_math.h ****  * By default all of the matrix functions perform size checking on the input and
 241:Core/Inc/arm_math.h ****  * output matrices.  For example, the matrix addition function verifies that the
 242:Core/Inc/arm_math.h ****  * two input matrices and the output matrix all have the same number of rows and
 243:Core/Inc/arm_math.h ****  * columns.  If the size check fails the functions return:
 244:Core/Inc/arm_math.h ****  * <pre>
 245:Core/Inc/arm_math.h ****  *     ARM_MATH_SIZE_MISMATCH
 246:Core/Inc/arm_math.h ****  * </pre>
 247:Core/Inc/arm_math.h ****  * Otherwise the functions return
 248:Core/Inc/arm_math.h ****  * <pre>
 249:Core/Inc/arm_math.h ****  *     ARM_MATH_SUCCESS
 250:Core/Inc/arm_math.h ****  * </pre>
 251:Core/Inc/arm_math.h ****  * There is some overhead associated with this matrix size checking.
 252:Core/Inc/arm_math.h ****  * The matrix size checking is enabled via the \#define
 253:Core/Inc/arm_math.h ****  * <pre>
 254:Core/Inc/arm_math.h ****  *     ARM_MATH_MATRIX_CHECK
 255:Core/Inc/arm_math.h ****  * </pre>
 256:Core/Inc/arm_math.h ****  * within the library project settings.  By default this macro is defined
 257:Core/Inc/arm_math.h ****  * and size checking is enabled.  By changing the project settings and
 258:Core/Inc/arm_math.h ****  * undefining this macro size checking is eliminated and the functions
 259:Core/Inc/arm_math.h ****  * run a bit faster.  With size checking disabled the functions always
 260:Core/Inc/arm_math.h ****  * return <code>ARM_MATH_SUCCESS</code>.
 261:Core/Inc/arm_math.h ****  */
ARM GAS  /tmp/ccpEjOub.s 			page 6


 262:Core/Inc/arm_math.h **** 
 263:Core/Inc/arm_math.h **** /**
 264:Core/Inc/arm_math.h ****  * @defgroup groupTransforms Transform Functions
 265:Core/Inc/arm_math.h ****  */
 266:Core/Inc/arm_math.h **** 
 267:Core/Inc/arm_math.h **** /**
 268:Core/Inc/arm_math.h ****  * @defgroup groupController Controller Functions
 269:Core/Inc/arm_math.h ****  */
 270:Core/Inc/arm_math.h **** 
 271:Core/Inc/arm_math.h **** /**
 272:Core/Inc/arm_math.h ****  * @defgroup groupStats Statistics Functions
 273:Core/Inc/arm_math.h ****  */
 274:Core/Inc/arm_math.h **** /**
 275:Core/Inc/arm_math.h ****  * @defgroup groupSupport Support Functions
 276:Core/Inc/arm_math.h ****  */
 277:Core/Inc/arm_math.h **** 
 278:Core/Inc/arm_math.h **** /**
 279:Core/Inc/arm_math.h ****  * @defgroup groupInterpolation Interpolation Functions
 280:Core/Inc/arm_math.h ****  * These functions perform 1- and 2-dimensional interpolation of data.
 281:Core/Inc/arm_math.h ****  * Linear interpolation is used for 1-dimensional data and
 282:Core/Inc/arm_math.h ****  * bilinear interpolation is used for 2-dimensional data.
 283:Core/Inc/arm_math.h ****  */
 284:Core/Inc/arm_math.h **** 
 285:Core/Inc/arm_math.h **** /**
 286:Core/Inc/arm_math.h ****  * @defgroup groupExamples Examples
 287:Core/Inc/arm_math.h ****  */
 288:Core/Inc/arm_math.h **** #ifndef _ARM_MATH_H
 289:Core/Inc/arm_math.h **** #define _ARM_MATH_H
 290:Core/Inc/arm_math.h **** 
 291:Core/Inc/arm_math.h **** /* ignore some GCC warnings */
 292:Core/Inc/arm_math.h **** #if defined ( __GNUC__ )
 293:Core/Inc/arm_math.h **** #pragma GCC diagnostic push
 294:Core/Inc/arm_math.h **** #pragma GCC diagnostic ignored "-Wsign-conversion"
 295:Core/Inc/arm_math.h **** #pragma GCC diagnostic ignored "-Wconversion"
 296:Core/Inc/arm_math.h **** #pragma GCC diagnostic ignored "-Wunused-parameter"
 297:Core/Inc/arm_math.h **** #endif
 298:Core/Inc/arm_math.h **** 
 299:Core/Inc/arm_math.h **** #define __CMSIS_GENERIC         /* disable NVIC and Systick functions */
 300:Core/Inc/arm_math.h **** 
 301:Core/Inc/arm_math.h **** #if defined(ARM_MATH_CM7)
 302:Core/Inc/arm_math.h ****   #include "core_cm7.h"
 303:Core/Inc/arm_math.h **** #elif defined (ARM_MATH_CM4)
 304:Core/Inc/arm_math.h ****   #include "core_cm4.h"
 305:Core/Inc/arm_math.h **** #elif defined (ARM_MATH_CM3)
 306:Core/Inc/arm_math.h ****   #include "core_cm3.h"
 307:Core/Inc/arm_math.h **** #elif defined (ARM_MATH_CM0)
 308:Core/Inc/arm_math.h ****   #include "core_cm0.h"
 309:Core/Inc/arm_math.h ****   #define ARM_MATH_CM0_FAMILY
 310:Core/Inc/arm_math.h **** #elif defined (ARM_MATH_CM0PLUS)
 311:Core/Inc/arm_math.h ****   #include "core_cm0plus.h"
 312:Core/Inc/arm_math.h ****   #define ARM_MATH_CM0_FAMILY
 313:Core/Inc/arm_math.h **** #else
 314:Core/Inc/arm_math.h ****   #error "Define according the used Cortex core ARM_MATH_CM7, ARM_MATH_CM4, ARM_MATH_CM3, ARM_MATH_
 315:Core/Inc/arm_math.h **** #endif
 316:Core/Inc/arm_math.h **** 
 317:Core/Inc/arm_math.h **** #undef  __CMSIS_GENERIC         /* enable NVIC and Systick functions */
 318:Core/Inc/arm_math.h **** #include "string.h"
ARM GAS  /tmp/ccpEjOub.s 			page 7


 319:Core/Inc/arm_math.h **** #include "math.h"
 320:Core/Inc/arm_math.h **** #ifdef   __cplusplus
 321:Core/Inc/arm_math.h **** extern "C"
 322:Core/Inc/arm_math.h **** {
 323:Core/Inc/arm_math.h **** #endif
 324:Core/Inc/arm_math.h **** 
 325:Core/Inc/arm_math.h **** 
 326:Core/Inc/arm_math.h ****   /**
 327:Core/Inc/arm_math.h ****    * @brief Macros required for reciprocal calculation in Normalized LMS
 328:Core/Inc/arm_math.h ****    */
 329:Core/Inc/arm_math.h **** 
 330:Core/Inc/arm_math.h **** #define DELTA_Q31          (0x100)
 331:Core/Inc/arm_math.h **** #define DELTA_Q15          0x5
 332:Core/Inc/arm_math.h **** #define INDEX_MASK         0x0000003F
 333:Core/Inc/arm_math.h **** #ifndef PI
 334:Core/Inc/arm_math.h **** #define PI                 3.14159265358979f
 335:Core/Inc/arm_math.h **** #endif
 336:Core/Inc/arm_math.h **** 
 337:Core/Inc/arm_math.h ****   /**
 338:Core/Inc/arm_math.h ****    * @brief Macros required for SINE and COSINE Fast math approximations
 339:Core/Inc/arm_math.h ****    */
 340:Core/Inc/arm_math.h **** 
 341:Core/Inc/arm_math.h **** #define FAST_MATH_TABLE_SIZE  512
 342:Core/Inc/arm_math.h **** #define FAST_MATH_Q31_SHIFT   (32 - 10)
 343:Core/Inc/arm_math.h **** #define FAST_MATH_Q15_SHIFT   (16 - 10)
 344:Core/Inc/arm_math.h **** #define CONTROLLER_Q31_SHIFT  (32 - 9)
 345:Core/Inc/arm_math.h **** #define TABLE_SIZE  256
 346:Core/Inc/arm_math.h **** #define TABLE_SPACING_Q31     0x400000
 347:Core/Inc/arm_math.h **** #define TABLE_SPACING_Q15     0x80
 348:Core/Inc/arm_math.h **** 
 349:Core/Inc/arm_math.h ****   /**
 350:Core/Inc/arm_math.h ****    * @brief Macros required for SINE and COSINE Controller functions
 351:Core/Inc/arm_math.h ****    */
 352:Core/Inc/arm_math.h ****   /* 1.31(q31) Fixed value of 2/360 */
 353:Core/Inc/arm_math.h ****   /* -1 to +1 is divided into 360 values so total spacing is (2/360) */
 354:Core/Inc/arm_math.h **** #define INPUT_SPACING         0xB60B61
 355:Core/Inc/arm_math.h **** 
 356:Core/Inc/arm_math.h ****   /**
 357:Core/Inc/arm_math.h ****    * @brief Macro for Unaligned Support
 358:Core/Inc/arm_math.h ****    */
 359:Core/Inc/arm_math.h **** #ifndef UNALIGNED_SUPPORT_DISABLE
 360:Core/Inc/arm_math.h ****     #define ALIGN4
 361:Core/Inc/arm_math.h **** #else
 362:Core/Inc/arm_math.h ****   #if defined  (__GNUC__)
 363:Core/Inc/arm_math.h ****     #define ALIGN4 __attribute__((aligned(4)))
 364:Core/Inc/arm_math.h ****   #else
 365:Core/Inc/arm_math.h ****     #define ALIGN4 __align(4)
 366:Core/Inc/arm_math.h ****   #endif
 367:Core/Inc/arm_math.h **** #endif   /* #ifndef UNALIGNED_SUPPORT_DISABLE */
 368:Core/Inc/arm_math.h **** 
 369:Core/Inc/arm_math.h ****   /**
 370:Core/Inc/arm_math.h ****    * @brief Error status returned by some functions in the library.
 371:Core/Inc/arm_math.h ****    */
 372:Core/Inc/arm_math.h **** 
 373:Core/Inc/arm_math.h ****   typedef enum
 374:Core/Inc/arm_math.h ****   {
 375:Core/Inc/arm_math.h ****     ARM_MATH_SUCCESS = 0,                /**< No error */
ARM GAS  /tmp/ccpEjOub.s 			page 8


 376:Core/Inc/arm_math.h ****     ARM_MATH_ARGUMENT_ERROR = -1,        /**< One or more arguments are incorrect */
 377:Core/Inc/arm_math.h ****     ARM_MATH_LENGTH_ERROR = -2,          /**< Length of data buffer is incorrect */
 378:Core/Inc/arm_math.h ****     ARM_MATH_SIZE_MISMATCH = -3,         /**< Size of matrices is not compatible with the operation
 379:Core/Inc/arm_math.h ****     ARM_MATH_NANINF = -4,                /**< Not-a-number (NaN) or infinity is generated */
 380:Core/Inc/arm_math.h ****     ARM_MATH_SINGULAR = -5,              /**< Generated by matrix inversion if the input matrix is 
 381:Core/Inc/arm_math.h ****     ARM_MATH_TEST_FAILURE = -6           /**< Test Failed  */
 382:Core/Inc/arm_math.h ****   } arm_status;
 383:Core/Inc/arm_math.h **** 
 384:Core/Inc/arm_math.h ****   /**
 385:Core/Inc/arm_math.h ****    * @brief 8-bit fractional data type in 1.7 format.
 386:Core/Inc/arm_math.h ****    */
 387:Core/Inc/arm_math.h ****   typedef int8_t q7_t;
 388:Core/Inc/arm_math.h **** 
 389:Core/Inc/arm_math.h ****   /**
 390:Core/Inc/arm_math.h ****    * @brief 16-bit fractional data type in 1.15 format.
 391:Core/Inc/arm_math.h ****    */
 392:Core/Inc/arm_math.h ****   typedef int16_t q15_t;
 393:Core/Inc/arm_math.h **** 
 394:Core/Inc/arm_math.h ****   /**
 395:Core/Inc/arm_math.h ****    * @brief 32-bit fractional data type in 1.31 format.
 396:Core/Inc/arm_math.h ****    */
 397:Core/Inc/arm_math.h ****   typedef int32_t q31_t;
 398:Core/Inc/arm_math.h **** 
 399:Core/Inc/arm_math.h ****   /**
 400:Core/Inc/arm_math.h ****    * @brief 64-bit fractional data type in 1.63 format.
 401:Core/Inc/arm_math.h ****    */
 402:Core/Inc/arm_math.h ****   typedef int64_t q63_t;
 403:Core/Inc/arm_math.h **** 
 404:Core/Inc/arm_math.h ****   /**
 405:Core/Inc/arm_math.h ****    * @brief 32-bit floating-point type definition.
 406:Core/Inc/arm_math.h ****    */
 407:Core/Inc/arm_math.h ****   typedef float float32_t;
 408:Core/Inc/arm_math.h **** 
 409:Core/Inc/arm_math.h ****   /**
 410:Core/Inc/arm_math.h ****    * @brief 64-bit floating-point type definition.
 411:Core/Inc/arm_math.h ****    */
 412:Core/Inc/arm_math.h ****   typedef double float64_t;
 413:Core/Inc/arm_math.h **** 
 414:Core/Inc/arm_math.h ****   /**
 415:Core/Inc/arm_math.h ****    * @brief definition to read/write two 16 bit values.
 416:Core/Inc/arm_math.h ****    */
 417:Core/Inc/arm_math.h **** #if defined __CC_ARM
 418:Core/Inc/arm_math.h ****   #define __SIMD32_TYPE int32_t __packed
 419:Core/Inc/arm_math.h ****   #define CMSIS_UNUSED __attribute__((unused))
 420:Core/Inc/arm_math.h **** 
 421:Core/Inc/arm_math.h **** #elif defined(__ARMCC_VERSION) && (__ARMCC_VERSION >= 6010050)
 422:Core/Inc/arm_math.h ****   #define __SIMD32_TYPE int32_t
 423:Core/Inc/arm_math.h ****   #define CMSIS_UNUSED __attribute__((unused))
 424:Core/Inc/arm_math.h **** 
 425:Core/Inc/arm_math.h **** #elif defined __GNUC__
 426:Core/Inc/arm_math.h ****   #define __SIMD32_TYPE int32_t
 427:Core/Inc/arm_math.h ****   #define CMSIS_UNUSED __attribute__((unused))
 428:Core/Inc/arm_math.h **** 
 429:Core/Inc/arm_math.h **** #elif defined __ICCARM__
 430:Core/Inc/arm_math.h ****   #define __SIMD32_TYPE int32_t __packed
 431:Core/Inc/arm_math.h ****   #define CMSIS_UNUSED
 432:Core/Inc/arm_math.h **** 
ARM GAS  /tmp/ccpEjOub.s 			page 9


 433:Core/Inc/arm_math.h **** #elif defined __CSMC__
 434:Core/Inc/arm_math.h ****   #define __SIMD32_TYPE int32_t
 435:Core/Inc/arm_math.h ****   #define CMSIS_UNUSED
 436:Core/Inc/arm_math.h **** 
 437:Core/Inc/arm_math.h **** #elif defined __TASKING__
 438:Core/Inc/arm_math.h ****   #define __SIMD32_TYPE __unaligned int32_t
 439:Core/Inc/arm_math.h ****   #define CMSIS_UNUSED
 440:Core/Inc/arm_math.h **** 
 441:Core/Inc/arm_math.h **** #else
 442:Core/Inc/arm_math.h ****   #error Unknown compiler
 443:Core/Inc/arm_math.h **** #endif
 444:Core/Inc/arm_math.h **** 
 445:Core/Inc/arm_math.h **** #define __SIMD32(addr)        (*(__SIMD32_TYPE **) & (addr))
 446:Core/Inc/arm_math.h **** #define __SIMD32_CONST(addr)  ((__SIMD32_TYPE *)(addr))
 447:Core/Inc/arm_math.h **** #define _SIMD32_OFFSET(addr)  (*(__SIMD32_TYPE *)  (addr))
 448:Core/Inc/arm_math.h **** #define __SIMD64(addr)        (*(int64_t **) & (addr))
 449:Core/Inc/arm_math.h **** 
 450:Core/Inc/arm_math.h **** #if defined (ARM_MATH_CM3) || defined (ARM_MATH_CM0_FAMILY)
 451:Core/Inc/arm_math.h ****   /**
 452:Core/Inc/arm_math.h ****    * @brief definition to pack two 16 bit values.
 453:Core/Inc/arm_math.h ****    */
 454:Core/Inc/arm_math.h **** #define __PKHBT(ARG1, ARG2, ARG3)      ( (((int32_t)(ARG1) <<  0) & (int32_t)0x0000FFFF) | \
 455:Core/Inc/arm_math.h ****                                          (((int32_t)(ARG2) << ARG3) & (int32_t)0xFFFF0000)  )
 456:Core/Inc/arm_math.h **** #define __PKHTB(ARG1, ARG2, ARG3)      ( (((int32_t)(ARG1) <<  0) & (int32_t)0xFFFF0000) | \
 457:Core/Inc/arm_math.h ****                                          (((int32_t)(ARG2) >> ARG3) & (int32_t)0x0000FFFF)  )
 458:Core/Inc/arm_math.h **** 
 459:Core/Inc/arm_math.h **** #endif
 460:Core/Inc/arm_math.h **** 
 461:Core/Inc/arm_math.h **** 
 462:Core/Inc/arm_math.h ****    /**
 463:Core/Inc/arm_math.h ****    * @brief definition to pack four 8 bit values.
 464:Core/Inc/arm_math.h ****    */
 465:Core/Inc/arm_math.h **** #ifndef ARM_MATH_BIG_ENDIAN
 466:Core/Inc/arm_math.h **** 
 467:Core/Inc/arm_math.h **** #define __PACKq7(v0,v1,v2,v3) ( (((int32_t)(v0) <<  0) & (int32_t)0x000000FF) | \
 468:Core/Inc/arm_math.h ****                                 (((int32_t)(v1) <<  8) & (int32_t)0x0000FF00) | \
 469:Core/Inc/arm_math.h ****                                 (((int32_t)(v2) << 16) & (int32_t)0x00FF0000) | \
 470:Core/Inc/arm_math.h ****                                 (((int32_t)(v3) << 24) & (int32_t)0xFF000000)  )
 471:Core/Inc/arm_math.h **** #else
 472:Core/Inc/arm_math.h **** 
 473:Core/Inc/arm_math.h **** #define __PACKq7(v0,v1,v2,v3) ( (((int32_t)(v3) <<  0) & (int32_t)0x000000FF) | \
 474:Core/Inc/arm_math.h ****                                 (((int32_t)(v2) <<  8) & (int32_t)0x0000FF00) | \
 475:Core/Inc/arm_math.h ****                                 (((int32_t)(v1) << 16) & (int32_t)0x00FF0000) | \
 476:Core/Inc/arm_math.h ****                                 (((int32_t)(v0) << 24) & (int32_t)0xFF000000)  )
 477:Core/Inc/arm_math.h **** 
 478:Core/Inc/arm_math.h **** #endif
 479:Core/Inc/arm_math.h **** 
 480:Core/Inc/arm_math.h **** 
 481:Core/Inc/arm_math.h ****   /**
 482:Core/Inc/arm_math.h ****    * @brief Clips Q63 to Q31 values.
 483:Core/Inc/arm_math.h ****    */
 484:Core/Inc/arm_math.h ****   static __INLINE q31_t clip_q63_to_q31(
 485:Core/Inc/arm_math.h ****   q63_t x)
 486:Core/Inc/arm_math.h ****   {
  26              		.loc 1 486 3
  27              		.cfi_startproc
  28              		@ args = 0, pretend = 0, frame = 8
ARM GAS  /tmp/ccpEjOub.s 			page 10


  29              		@ frame_needed = 1, uses_anonymous_args = 0
  30              		@ link register save eliminated.
  31 0000 80B4     		push	{r7}
  32              	.LCFI0:
  33              		.cfi_def_cfa_offset 4
  34              		.cfi_offset 7, -4
  35 0002 83B0     		sub	sp, sp, #12
  36              	.LCFI1:
  37              		.cfi_def_cfa_offset 16
  38 0004 00AF     		add	r7, sp, #0
  39              	.LCFI2:
  40              		.cfi_def_cfa_register 7
  41 0006 C7E90001 		strd	r0, [r7]
 487:Core/Inc/arm_math.h ****     return ((q31_t) (x >> 32) != ((q31_t) x >> 31)) ?
  42              		.loc 1 487 24
  43 000a D7E90001 		ldrd	r0, [r7]
  44 000e 4FF00002 		mov	r2, #0
  45 0012 4FF00003 		mov	r3, #0
  46 0016 0A00     		movs	r2, r1
  47 0018 CB17     		asrs	r3, r1, #31
  48              		.loc 1 487 35
  49 001a 3B68     		ldr	r3, [r7]
  50              		.loc 1 487 45
  51 001c DB17     		asrs	r3, r3, #31
 488:Core/Inc/arm_math.h ****       ((0x7FFFFFFF ^ ((q31_t) (x >> 63)))) : (q31_t) x;
  52              		.loc 1 488 44
  53 001e 9A42     		cmp	r2, r3
  54 0020 0CD0     		beq	.L2
  55              		.loc 1 488 34 discriminator 1
  56 0022 D7E90001 		ldrd	r0, [r7]
  57 0026 4FF00002 		mov	r2, #0
  58 002a 4FF00003 		mov	r3, #0
  59 002e CA17     		asrs	r2, r1, #31
  60 0030 CB17     		asrs	r3, r1, #31
  61              		.loc 1 488 23 discriminator 1
  62 0032 1346     		mov	r3, r2
  63              		.loc 1 488 44 discriminator 1
  64 0034 83F00043 		eor	r3, r3, #-2147483648
  65 0038 DB43     		mvns	r3, r3
  66 003a 00E0     		b	.L4
  67              	.L2:
  68              		.loc 1 488 44 is_stmt 0 discriminator 2
  69 003c 3B68     		ldr	r3, [r7]
  70              	.L4:
 489:Core/Inc/arm_math.h ****   }
  71              		.loc 1 489 3 is_stmt 1 discriminator 5
  72 003e 1846     		mov	r0, r3
  73 0040 0C37     		adds	r7, r7, #12
  74              	.LCFI3:
  75              		.cfi_def_cfa_offset 4
  76 0042 BD46     		mov	sp, r7
  77              	.LCFI4:
  78              		.cfi_def_cfa_register 13
  79              		@ sp needed
  80 0044 80BC     		pop	{r7}
  81              	.LCFI5:
  82              		.cfi_restore 7
ARM GAS  /tmp/ccpEjOub.s 			page 11


  83              		.cfi_def_cfa_offset 0
  84 0046 7047     		bx	lr
  85              		.cfi_endproc
  86              	.LFE44:
  88              		.section	.text.__QADD,"ax",%progbits
  89              		.align	1
  90              		.syntax unified
  91              		.thumb
  92              		.thumb_func
  93              		.fpu softvfp
  95              	__QADD:
  96              	.LFB63:
 490:Core/Inc/arm_math.h **** 
 491:Core/Inc/arm_math.h ****   /**
 492:Core/Inc/arm_math.h ****    * @brief Clips Q63 to Q15 values.
 493:Core/Inc/arm_math.h ****    */
 494:Core/Inc/arm_math.h ****   static __INLINE q15_t clip_q63_to_q15(
 495:Core/Inc/arm_math.h ****   q63_t x)
 496:Core/Inc/arm_math.h ****   {
 497:Core/Inc/arm_math.h ****     return ((q31_t) (x >> 32) != ((q31_t) x >> 31)) ?
 498:Core/Inc/arm_math.h ****       ((0x7FFF ^ ((q15_t) (x >> 63)))) : (q15_t) (x >> 15);
 499:Core/Inc/arm_math.h ****   }
 500:Core/Inc/arm_math.h **** 
 501:Core/Inc/arm_math.h ****   /**
 502:Core/Inc/arm_math.h ****    * @brief Clips Q31 to Q7 values.
 503:Core/Inc/arm_math.h ****    */
 504:Core/Inc/arm_math.h ****   static __INLINE q7_t clip_q31_to_q7(
 505:Core/Inc/arm_math.h ****   q31_t x)
 506:Core/Inc/arm_math.h ****   {
 507:Core/Inc/arm_math.h ****     return ((q31_t) (x >> 24) != ((q31_t) x >> 23)) ?
 508:Core/Inc/arm_math.h ****       ((0x7F ^ ((q7_t) (x >> 31)))) : (q7_t) x;
 509:Core/Inc/arm_math.h ****   }
 510:Core/Inc/arm_math.h **** 
 511:Core/Inc/arm_math.h ****   /**
 512:Core/Inc/arm_math.h ****    * @brief Clips Q31 to Q15 values.
 513:Core/Inc/arm_math.h ****    */
 514:Core/Inc/arm_math.h ****   static __INLINE q15_t clip_q31_to_q15(
 515:Core/Inc/arm_math.h ****   q31_t x)
 516:Core/Inc/arm_math.h ****   {
 517:Core/Inc/arm_math.h ****     return ((q31_t) (x >> 16) != ((q31_t) x >> 15)) ?
 518:Core/Inc/arm_math.h ****       ((0x7FFF ^ ((q15_t) (x >> 31)))) : (q15_t) x;
 519:Core/Inc/arm_math.h ****   }
 520:Core/Inc/arm_math.h **** 
 521:Core/Inc/arm_math.h ****   /**
 522:Core/Inc/arm_math.h ****    * @brief Multiplies 32 X 64 and returns 32 bit result in 2.30 format.
 523:Core/Inc/arm_math.h ****    */
 524:Core/Inc/arm_math.h **** 
 525:Core/Inc/arm_math.h ****   static __INLINE q63_t mult32x64(
 526:Core/Inc/arm_math.h ****   q63_t x,
 527:Core/Inc/arm_math.h ****   q31_t y)
 528:Core/Inc/arm_math.h ****   {
 529:Core/Inc/arm_math.h ****     return ((((q63_t) (x & 0x00000000FFFFFFFF) * y) >> 32) +
 530:Core/Inc/arm_math.h ****             (((q63_t) (x >> 32) * y)));
 531:Core/Inc/arm_math.h ****   }
 532:Core/Inc/arm_math.h **** 
 533:Core/Inc/arm_math.h **** /*
 534:Core/Inc/arm_math.h ****   #if defined (ARM_MATH_CM0_FAMILY) && defined ( __CC_ARM   )
ARM GAS  /tmp/ccpEjOub.s 			page 12


 535:Core/Inc/arm_math.h ****   #define __CLZ __clz
 536:Core/Inc/arm_math.h ****   #endif
 537:Core/Inc/arm_math.h ****  */
 538:Core/Inc/arm_math.h **** /* note: function can be removed when all toolchain support __CLZ for Cortex-M0 */
 539:Core/Inc/arm_math.h **** #if defined (ARM_MATH_CM0_FAMILY) && ((defined (__ICCARM__))  )
 540:Core/Inc/arm_math.h ****   static __INLINE uint32_t __CLZ(
 541:Core/Inc/arm_math.h ****   q31_t data);
 542:Core/Inc/arm_math.h **** 
 543:Core/Inc/arm_math.h ****   static __INLINE uint32_t __CLZ(
 544:Core/Inc/arm_math.h ****   q31_t data)
 545:Core/Inc/arm_math.h ****   {
 546:Core/Inc/arm_math.h ****     uint32_t count = 0;
 547:Core/Inc/arm_math.h ****     uint32_t mask = 0x80000000;
 548:Core/Inc/arm_math.h **** 
 549:Core/Inc/arm_math.h ****     while((data & mask) == 0)
 550:Core/Inc/arm_math.h ****     {
 551:Core/Inc/arm_math.h ****       count += 1u;
 552:Core/Inc/arm_math.h ****       mask = mask >> 1u;
 553:Core/Inc/arm_math.h ****     }
 554:Core/Inc/arm_math.h **** 
 555:Core/Inc/arm_math.h ****     return (count);
 556:Core/Inc/arm_math.h ****   }
 557:Core/Inc/arm_math.h **** #endif
 558:Core/Inc/arm_math.h **** 
 559:Core/Inc/arm_math.h ****   /**
 560:Core/Inc/arm_math.h ****    * @brief Function to Calculates 1/in (reciprocal) value of Q31 Data type.
 561:Core/Inc/arm_math.h ****    */
 562:Core/Inc/arm_math.h **** 
 563:Core/Inc/arm_math.h ****   static __INLINE uint32_t arm_recip_q31(
 564:Core/Inc/arm_math.h ****   q31_t in,
 565:Core/Inc/arm_math.h ****   q31_t * dst,
 566:Core/Inc/arm_math.h ****   q31_t * pRecipTable)
 567:Core/Inc/arm_math.h ****   {
 568:Core/Inc/arm_math.h ****     q31_t out;
 569:Core/Inc/arm_math.h ****     uint32_t tempVal;
 570:Core/Inc/arm_math.h ****     uint32_t index, i;
 571:Core/Inc/arm_math.h ****     uint32_t signBits;
 572:Core/Inc/arm_math.h **** 
 573:Core/Inc/arm_math.h ****     if(in > 0)
 574:Core/Inc/arm_math.h ****     {
 575:Core/Inc/arm_math.h ****       signBits = ((uint32_t) (__CLZ( in) - 1));
 576:Core/Inc/arm_math.h ****     }
 577:Core/Inc/arm_math.h ****     else
 578:Core/Inc/arm_math.h ****     {
 579:Core/Inc/arm_math.h ****       signBits = ((uint32_t) (__CLZ(-in) - 1));
 580:Core/Inc/arm_math.h ****     }
 581:Core/Inc/arm_math.h **** 
 582:Core/Inc/arm_math.h ****     /* Convert input sample to 1.31 format */
 583:Core/Inc/arm_math.h ****     in = (in << signBits);
 584:Core/Inc/arm_math.h **** 
 585:Core/Inc/arm_math.h ****     /* calculation of index for initial approximated Val */
 586:Core/Inc/arm_math.h ****     index = (uint32_t)(in >> 24);
 587:Core/Inc/arm_math.h ****     index = (index & INDEX_MASK);
 588:Core/Inc/arm_math.h **** 
 589:Core/Inc/arm_math.h ****     /* 1.31 with exp 1 */
 590:Core/Inc/arm_math.h ****     out = pRecipTable[index];
 591:Core/Inc/arm_math.h **** 
ARM GAS  /tmp/ccpEjOub.s 			page 13


 592:Core/Inc/arm_math.h ****     /* calculation of reciprocal value */
 593:Core/Inc/arm_math.h ****     /* running approximation for two iterations */
 594:Core/Inc/arm_math.h ****     for (i = 0u; i < 2u; i++)
 595:Core/Inc/arm_math.h ****     {
 596:Core/Inc/arm_math.h ****       tempVal = (uint32_t) (((q63_t) in * out) >> 31);
 597:Core/Inc/arm_math.h ****       tempVal = 0x7FFFFFFFu - tempVal;
 598:Core/Inc/arm_math.h ****       /*      1.31 with exp 1 */
 599:Core/Inc/arm_math.h ****       /* out = (q31_t) (((q63_t) out * tempVal) >> 30); */
 600:Core/Inc/arm_math.h ****       out = clip_q63_to_q31(((q63_t) out * tempVal) >> 30);
 601:Core/Inc/arm_math.h ****     }
 602:Core/Inc/arm_math.h **** 
 603:Core/Inc/arm_math.h ****     /* write output */
 604:Core/Inc/arm_math.h ****     *dst = out;
 605:Core/Inc/arm_math.h **** 
 606:Core/Inc/arm_math.h ****     /* return num of signbits of out = 1/in value */
 607:Core/Inc/arm_math.h ****     return (signBits + 1u);
 608:Core/Inc/arm_math.h ****   }
 609:Core/Inc/arm_math.h **** 
 610:Core/Inc/arm_math.h **** 
 611:Core/Inc/arm_math.h ****   /**
 612:Core/Inc/arm_math.h ****    * @brief Function to Calculates 1/in (reciprocal) value of Q15 Data type.
 613:Core/Inc/arm_math.h ****    */
 614:Core/Inc/arm_math.h ****   static __INLINE uint32_t arm_recip_q15(
 615:Core/Inc/arm_math.h ****   q15_t in,
 616:Core/Inc/arm_math.h ****   q15_t * dst,
 617:Core/Inc/arm_math.h ****   q15_t * pRecipTable)
 618:Core/Inc/arm_math.h ****   {
 619:Core/Inc/arm_math.h ****     q15_t out = 0;
 620:Core/Inc/arm_math.h ****     uint32_t tempVal = 0;
 621:Core/Inc/arm_math.h ****     uint32_t index = 0, i = 0;
 622:Core/Inc/arm_math.h ****     uint32_t signBits = 0;
 623:Core/Inc/arm_math.h **** 
 624:Core/Inc/arm_math.h ****     if(in > 0)
 625:Core/Inc/arm_math.h ****     {
 626:Core/Inc/arm_math.h ****       signBits = ((uint32_t)(__CLZ( in) - 17));
 627:Core/Inc/arm_math.h ****     }
 628:Core/Inc/arm_math.h ****     else
 629:Core/Inc/arm_math.h ****     {
 630:Core/Inc/arm_math.h ****       signBits = ((uint32_t)(__CLZ(-in) - 17));
 631:Core/Inc/arm_math.h ****     }
 632:Core/Inc/arm_math.h **** 
 633:Core/Inc/arm_math.h ****     /* Convert input sample to 1.15 format */
 634:Core/Inc/arm_math.h ****     in = (in << signBits);
 635:Core/Inc/arm_math.h **** 
 636:Core/Inc/arm_math.h ****     /* calculation of index for initial approximated Val */
 637:Core/Inc/arm_math.h ****     index = (uint32_t)(in >>  8);
 638:Core/Inc/arm_math.h ****     index = (index & INDEX_MASK);
 639:Core/Inc/arm_math.h **** 
 640:Core/Inc/arm_math.h ****     /*      1.15 with exp 1  */
 641:Core/Inc/arm_math.h ****     out = pRecipTable[index];
 642:Core/Inc/arm_math.h **** 
 643:Core/Inc/arm_math.h ****     /* calculation of reciprocal value */
 644:Core/Inc/arm_math.h ****     /* running approximation for two iterations */
 645:Core/Inc/arm_math.h ****     for (i = 0u; i < 2u; i++)
 646:Core/Inc/arm_math.h ****     {
 647:Core/Inc/arm_math.h ****       tempVal = (uint32_t) (((q31_t) in * out) >> 15);
 648:Core/Inc/arm_math.h ****       tempVal = 0x7FFFu - tempVal;
ARM GAS  /tmp/ccpEjOub.s 			page 14


 649:Core/Inc/arm_math.h ****       /*      1.15 with exp 1 */
 650:Core/Inc/arm_math.h ****       out = (q15_t) (((q31_t) out * tempVal) >> 14);
 651:Core/Inc/arm_math.h ****       /* out = clip_q31_to_q15(((q31_t) out * tempVal) >> 14); */
 652:Core/Inc/arm_math.h ****     }
 653:Core/Inc/arm_math.h **** 
 654:Core/Inc/arm_math.h ****     /* write output */
 655:Core/Inc/arm_math.h ****     *dst = out;
 656:Core/Inc/arm_math.h **** 
 657:Core/Inc/arm_math.h ****     /* return num of signbits of out = 1/in value */
 658:Core/Inc/arm_math.h ****     return (signBits + 1);
 659:Core/Inc/arm_math.h ****   }
 660:Core/Inc/arm_math.h **** 
 661:Core/Inc/arm_math.h **** 
 662:Core/Inc/arm_math.h ****   /*
 663:Core/Inc/arm_math.h ****    * @brief C custom defined intrinisic function for only M0 processors
 664:Core/Inc/arm_math.h ****    */
 665:Core/Inc/arm_math.h **** #if defined(ARM_MATH_CM0_FAMILY)
 666:Core/Inc/arm_math.h ****   static __INLINE q31_t __SSAT(
 667:Core/Inc/arm_math.h ****   q31_t x,
 668:Core/Inc/arm_math.h ****   uint32_t y)
 669:Core/Inc/arm_math.h ****   {
 670:Core/Inc/arm_math.h ****     int32_t posMax, negMin;
 671:Core/Inc/arm_math.h ****     uint32_t i;
 672:Core/Inc/arm_math.h **** 
 673:Core/Inc/arm_math.h ****     posMax = 1;
 674:Core/Inc/arm_math.h ****     for (i = 0; i < (y - 1); i++)
 675:Core/Inc/arm_math.h ****     {
 676:Core/Inc/arm_math.h ****       posMax = posMax * 2;
 677:Core/Inc/arm_math.h ****     }
 678:Core/Inc/arm_math.h **** 
 679:Core/Inc/arm_math.h ****     if(x > 0)
 680:Core/Inc/arm_math.h ****     {
 681:Core/Inc/arm_math.h ****       posMax = (posMax - 1);
 682:Core/Inc/arm_math.h **** 
 683:Core/Inc/arm_math.h ****       if(x > posMax)
 684:Core/Inc/arm_math.h ****       {
 685:Core/Inc/arm_math.h ****         x = posMax;
 686:Core/Inc/arm_math.h ****       }
 687:Core/Inc/arm_math.h ****     }
 688:Core/Inc/arm_math.h ****     else
 689:Core/Inc/arm_math.h ****     {
 690:Core/Inc/arm_math.h ****       negMin = -posMax;
 691:Core/Inc/arm_math.h **** 
 692:Core/Inc/arm_math.h ****       if(x < negMin)
 693:Core/Inc/arm_math.h ****       {
 694:Core/Inc/arm_math.h ****         x = negMin;
 695:Core/Inc/arm_math.h ****       }
 696:Core/Inc/arm_math.h ****     }
 697:Core/Inc/arm_math.h ****     return (x);
 698:Core/Inc/arm_math.h ****   }
 699:Core/Inc/arm_math.h **** #endif /* end of ARM_MATH_CM0_FAMILY */
 700:Core/Inc/arm_math.h **** 
 701:Core/Inc/arm_math.h **** 
 702:Core/Inc/arm_math.h ****   /*
 703:Core/Inc/arm_math.h ****    * @brief C custom defined intrinsic function for M3 and M0 processors
 704:Core/Inc/arm_math.h ****    */
 705:Core/Inc/arm_math.h **** #if defined (ARM_MATH_CM3) || defined (ARM_MATH_CM0_FAMILY)
ARM GAS  /tmp/ccpEjOub.s 			page 15


 706:Core/Inc/arm_math.h **** 
 707:Core/Inc/arm_math.h ****   /*
 708:Core/Inc/arm_math.h ****    * @brief C custom defined QADD8 for M3 and M0 processors
 709:Core/Inc/arm_math.h ****    */
 710:Core/Inc/arm_math.h ****   static __INLINE uint32_t __QADD8(
 711:Core/Inc/arm_math.h ****   uint32_t x,
 712:Core/Inc/arm_math.h ****   uint32_t y)
 713:Core/Inc/arm_math.h ****   {
 714:Core/Inc/arm_math.h ****     q31_t r, s, t, u;
 715:Core/Inc/arm_math.h **** 
 716:Core/Inc/arm_math.h ****     r = __SSAT(((((q31_t)x << 24) >> 24) + (((q31_t)y << 24) >> 24)), 8) & (int32_t)0x000000FF;
 717:Core/Inc/arm_math.h ****     s = __SSAT(((((q31_t)x << 16) >> 24) + (((q31_t)y << 16) >> 24)), 8) & (int32_t)0x000000FF;
 718:Core/Inc/arm_math.h ****     t = __SSAT(((((q31_t)x <<  8) >> 24) + (((q31_t)y <<  8) >> 24)), 8) & (int32_t)0x000000FF;
 719:Core/Inc/arm_math.h ****     u = __SSAT(((((q31_t)x      ) >> 24) + (((q31_t)y      ) >> 24)), 8) & (int32_t)0x000000FF;
 720:Core/Inc/arm_math.h **** 
 721:Core/Inc/arm_math.h ****     return ((uint32_t)((u << 24) | (t << 16) | (s <<  8) | (r      )));
 722:Core/Inc/arm_math.h ****   }
 723:Core/Inc/arm_math.h **** 
 724:Core/Inc/arm_math.h **** 
 725:Core/Inc/arm_math.h ****   /*
 726:Core/Inc/arm_math.h ****    * @brief C custom defined QSUB8 for M3 and M0 processors
 727:Core/Inc/arm_math.h ****    */
 728:Core/Inc/arm_math.h ****   static __INLINE uint32_t __QSUB8(
 729:Core/Inc/arm_math.h ****   uint32_t x,
 730:Core/Inc/arm_math.h ****   uint32_t y)
 731:Core/Inc/arm_math.h ****   {
 732:Core/Inc/arm_math.h ****     q31_t r, s, t, u;
 733:Core/Inc/arm_math.h **** 
 734:Core/Inc/arm_math.h ****     r = __SSAT(((((q31_t)x << 24) >> 24) - (((q31_t)y << 24) >> 24)), 8) & (int32_t)0x000000FF;
 735:Core/Inc/arm_math.h ****     s = __SSAT(((((q31_t)x << 16) >> 24) - (((q31_t)y << 16) >> 24)), 8) & (int32_t)0x000000FF;
 736:Core/Inc/arm_math.h ****     t = __SSAT(((((q31_t)x <<  8) >> 24) - (((q31_t)y <<  8) >> 24)), 8) & (int32_t)0x000000FF;
 737:Core/Inc/arm_math.h ****     u = __SSAT(((((q31_t)x      ) >> 24) - (((q31_t)y      ) >> 24)), 8) & (int32_t)0x000000FF;
 738:Core/Inc/arm_math.h **** 
 739:Core/Inc/arm_math.h ****     return ((uint32_t)((u << 24) | (t << 16) | (s <<  8) | (r      )));
 740:Core/Inc/arm_math.h ****   }
 741:Core/Inc/arm_math.h **** 
 742:Core/Inc/arm_math.h **** 
 743:Core/Inc/arm_math.h ****   /*
 744:Core/Inc/arm_math.h ****    * @brief C custom defined QADD16 for M3 and M0 processors
 745:Core/Inc/arm_math.h ****    */
 746:Core/Inc/arm_math.h ****   static __INLINE uint32_t __QADD16(
 747:Core/Inc/arm_math.h ****   uint32_t x,
 748:Core/Inc/arm_math.h ****   uint32_t y)
 749:Core/Inc/arm_math.h ****   {
 750:Core/Inc/arm_math.h **** /*  q31_t r,     s;  without initialisation 'arm_offset_q15 test' fails  but 'intrinsic' tests pass
 751:Core/Inc/arm_math.h ****     q31_t r = 0, s = 0;
 752:Core/Inc/arm_math.h **** 
 753:Core/Inc/arm_math.h ****     r = __SSAT(((((q31_t)x << 16) >> 16) + (((q31_t)y << 16) >> 16)), 16) & (int32_t)0x0000FFFF;
 754:Core/Inc/arm_math.h ****     s = __SSAT(((((q31_t)x      ) >> 16) + (((q31_t)y      ) >> 16)), 16) & (int32_t)0x0000FFFF;
 755:Core/Inc/arm_math.h **** 
 756:Core/Inc/arm_math.h ****     return ((uint32_t)((s << 16) | (r      )));
 757:Core/Inc/arm_math.h ****   }
 758:Core/Inc/arm_math.h **** 
 759:Core/Inc/arm_math.h **** 
 760:Core/Inc/arm_math.h ****   /*
 761:Core/Inc/arm_math.h ****    * @brief C custom defined SHADD16 for M3 and M0 processors
 762:Core/Inc/arm_math.h ****    */
ARM GAS  /tmp/ccpEjOub.s 			page 16


 763:Core/Inc/arm_math.h ****   static __INLINE uint32_t __SHADD16(
 764:Core/Inc/arm_math.h ****   uint32_t x,
 765:Core/Inc/arm_math.h ****   uint32_t y)
 766:Core/Inc/arm_math.h ****   {
 767:Core/Inc/arm_math.h ****     q31_t r, s;
 768:Core/Inc/arm_math.h **** 
 769:Core/Inc/arm_math.h ****     r = (((((q31_t)x << 16) >> 16) + (((q31_t)y << 16) >> 16)) >> 1) & (int32_t)0x0000FFFF;
 770:Core/Inc/arm_math.h ****     s = (((((q31_t)x      ) >> 16) + (((q31_t)y      ) >> 16)) >> 1) & (int32_t)0x0000FFFF;
 771:Core/Inc/arm_math.h **** 
 772:Core/Inc/arm_math.h ****     return ((uint32_t)((s << 16) | (r      )));
 773:Core/Inc/arm_math.h ****   }
 774:Core/Inc/arm_math.h **** 
 775:Core/Inc/arm_math.h **** 
 776:Core/Inc/arm_math.h ****   /*
 777:Core/Inc/arm_math.h ****    * @brief C custom defined QSUB16 for M3 and M0 processors
 778:Core/Inc/arm_math.h ****    */
 779:Core/Inc/arm_math.h ****   static __INLINE uint32_t __QSUB16(
 780:Core/Inc/arm_math.h ****   uint32_t x,
 781:Core/Inc/arm_math.h ****   uint32_t y)
 782:Core/Inc/arm_math.h ****   {
 783:Core/Inc/arm_math.h ****     q31_t r, s;
 784:Core/Inc/arm_math.h **** 
 785:Core/Inc/arm_math.h ****     r = __SSAT(((((q31_t)x << 16) >> 16) - (((q31_t)y << 16) >> 16)), 16) & (int32_t)0x0000FFFF;
 786:Core/Inc/arm_math.h ****     s = __SSAT(((((q31_t)x      ) >> 16) - (((q31_t)y      ) >> 16)), 16) & (int32_t)0x0000FFFF;
 787:Core/Inc/arm_math.h **** 
 788:Core/Inc/arm_math.h ****     return ((uint32_t)((s << 16) | (r      )));
 789:Core/Inc/arm_math.h ****   }
 790:Core/Inc/arm_math.h **** 
 791:Core/Inc/arm_math.h **** 
 792:Core/Inc/arm_math.h ****   /*
 793:Core/Inc/arm_math.h ****    * @brief C custom defined SHSUB16 for M3 and M0 processors
 794:Core/Inc/arm_math.h ****    */
 795:Core/Inc/arm_math.h ****   static __INLINE uint32_t __SHSUB16(
 796:Core/Inc/arm_math.h ****   uint32_t x,
 797:Core/Inc/arm_math.h ****   uint32_t y)
 798:Core/Inc/arm_math.h ****   {
 799:Core/Inc/arm_math.h ****     q31_t r, s;
 800:Core/Inc/arm_math.h **** 
 801:Core/Inc/arm_math.h ****     r = (((((q31_t)x << 16) >> 16) - (((q31_t)y << 16) >> 16)) >> 1) & (int32_t)0x0000FFFF;
 802:Core/Inc/arm_math.h ****     s = (((((q31_t)x      ) >> 16) - (((q31_t)y      ) >> 16)) >> 1) & (int32_t)0x0000FFFF;
 803:Core/Inc/arm_math.h **** 
 804:Core/Inc/arm_math.h ****     return ((uint32_t)((s << 16) | (r      )));
 805:Core/Inc/arm_math.h ****   }
 806:Core/Inc/arm_math.h **** 
 807:Core/Inc/arm_math.h **** 
 808:Core/Inc/arm_math.h ****   /*
 809:Core/Inc/arm_math.h ****    * @brief C custom defined QASX for M3 and M0 processors
 810:Core/Inc/arm_math.h ****    */
 811:Core/Inc/arm_math.h ****   static __INLINE uint32_t __QASX(
 812:Core/Inc/arm_math.h ****   uint32_t x,
 813:Core/Inc/arm_math.h ****   uint32_t y)
 814:Core/Inc/arm_math.h ****   {
 815:Core/Inc/arm_math.h ****     q31_t r, s;
 816:Core/Inc/arm_math.h **** 
 817:Core/Inc/arm_math.h ****     r = __SSAT(((((q31_t)x << 16) >> 16) - (((q31_t)y      ) >> 16)), 16) & (int32_t)0x0000FFFF;
 818:Core/Inc/arm_math.h ****     s = __SSAT(((((q31_t)x      ) >> 16) + (((q31_t)y << 16) >> 16)), 16) & (int32_t)0x0000FFFF;
 819:Core/Inc/arm_math.h **** 
ARM GAS  /tmp/ccpEjOub.s 			page 17


 820:Core/Inc/arm_math.h ****     return ((uint32_t)((s << 16) | (r      )));
 821:Core/Inc/arm_math.h ****   }
 822:Core/Inc/arm_math.h **** 
 823:Core/Inc/arm_math.h **** 
 824:Core/Inc/arm_math.h ****   /*
 825:Core/Inc/arm_math.h ****    * @brief C custom defined SHASX for M3 and M0 processors
 826:Core/Inc/arm_math.h ****    */
 827:Core/Inc/arm_math.h ****   static __INLINE uint32_t __SHASX(
 828:Core/Inc/arm_math.h ****   uint32_t x,
 829:Core/Inc/arm_math.h ****   uint32_t y)
 830:Core/Inc/arm_math.h ****   {
 831:Core/Inc/arm_math.h ****     q31_t r, s;
 832:Core/Inc/arm_math.h **** 
 833:Core/Inc/arm_math.h ****     r = (((((q31_t)x << 16) >> 16) - (((q31_t)y      ) >> 16)) >> 1) & (int32_t)0x0000FFFF;
 834:Core/Inc/arm_math.h ****     s = (((((q31_t)x      ) >> 16) + (((q31_t)y << 16) >> 16)) >> 1) & (int32_t)0x0000FFFF;
 835:Core/Inc/arm_math.h **** 
 836:Core/Inc/arm_math.h ****     return ((uint32_t)((s << 16) | (r      )));
 837:Core/Inc/arm_math.h ****   }
 838:Core/Inc/arm_math.h **** 
 839:Core/Inc/arm_math.h **** 
 840:Core/Inc/arm_math.h ****   /*
 841:Core/Inc/arm_math.h ****    * @brief C custom defined QSAX for M3 and M0 processors
 842:Core/Inc/arm_math.h ****    */
 843:Core/Inc/arm_math.h ****   static __INLINE uint32_t __QSAX(
 844:Core/Inc/arm_math.h ****   uint32_t x,
 845:Core/Inc/arm_math.h ****   uint32_t y)
 846:Core/Inc/arm_math.h ****   {
 847:Core/Inc/arm_math.h ****     q31_t r, s;
 848:Core/Inc/arm_math.h **** 
 849:Core/Inc/arm_math.h ****     r = __SSAT(((((q31_t)x << 16) >> 16) + (((q31_t)y      ) >> 16)), 16) & (int32_t)0x0000FFFF;
 850:Core/Inc/arm_math.h ****     s = __SSAT(((((q31_t)x      ) >> 16) - (((q31_t)y << 16) >> 16)), 16) & (int32_t)0x0000FFFF;
 851:Core/Inc/arm_math.h **** 
 852:Core/Inc/arm_math.h ****     return ((uint32_t)((s << 16) | (r      )));
 853:Core/Inc/arm_math.h ****   }
 854:Core/Inc/arm_math.h **** 
 855:Core/Inc/arm_math.h **** 
 856:Core/Inc/arm_math.h ****   /*
 857:Core/Inc/arm_math.h ****    * @brief C custom defined SHSAX for M3 and M0 processors
 858:Core/Inc/arm_math.h ****    */
 859:Core/Inc/arm_math.h ****   static __INLINE uint32_t __SHSAX(
 860:Core/Inc/arm_math.h ****   uint32_t x,
 861:Core/Inc/arm_math.h ****   uint32_t y)
 862:Core/Inc/arm_math.h ****   {
 863:Core/Inc/arm_math.h ****     q31_t r, s;
 864:Core/Inc/arm_math.h **** 
 865:Core/Inc/arm_math.h ****     r = (((((q31_t)x << 16) >> 16) + (((q31_t)y      ) >> 16)) >> 1) & (int32_t)0x0000FFFF;
 866:Core/Inc/arm_math.h ****     s = (((((q31_t)x      ) >> 16) - (((q31_t)y << 16) >> 16)) >> 1) & (int32_t)0x0000FFFF;
 867:Core/Inc/arm_math.h **** 
 868:Core/Inc/arm_math.h ****     return ((uint32_t)((s << 16) | (r      )));
 869:Core/Inc/arm_math.h ****   }
 870:Core/Inc/arm_math.h **** 
 871:Core/Inc/arm_math.h **** 
 872:Core/Inc/arm_math.h ****   /*
 873:Core/Inc/arm_math.h ****    * @brief C custom defined SMUSDX for M3 and M0 processors
 874:Core/Inc/arm_math.h ****    */
 875:Core/Inc/arm_math.h ****   static __INLINE uint32_t __SMUSDX(
 876:Core/Inc/arm_math.h ****   uint32_t x,
ARM GAS  /tmp/ccpEjOub.s 			page 18


 877:Core/Inc/arm_math.h ****   uint32_t y)
 878:Core/Inc/arm_math.h ****   {
 879:Core/Inc/arm_math.h ****     return ((uint32_t)(((((q31_t)x << 16) >> 16) * (((q31_t)y      ) >> 16)) -
 880:Core/Inc/arm_math.h ****                        ((((q31_t)x      ) >> 16) * (((q31_t)y << 16) >> 16))   ));
 881:Core/Inc/arm_math.h ****   }
 882:Core/Inc/arm_math.h **** 
 883:Core/Inc/arm_math.h ****   /*
 884:Core/Inc/arm_math.h ****    * @brief C custom defined SMUADX for M3 and M0 processors
 885:Core/Inc/arm_math.h ****    */
 886:Core/Inc/arm_math.h ****   static __INLINE uint32_t __SMUADX(
 887:Core/Inc/arm_math.h ****   uint32_t x,
 888:Core/Inc/arm_math.h ****   uint32_t y)
 889:Core/Inc/arm_math.h ****   {
 890:Core/Inc/arm_math.h ****     return ((uint32_t)(((((q31_t)x << 16) >> 16) * (((q31_t)y      ) >> 16)) +
 891:Core/Inc/arm_math.h ****                        ((((q31_t)x      ) >> 16) * (((q31_t)y << 16) >> 16))   ));
 892:Core/Inc/arm_math.h ****   }
 893:Core/Inc/arm_math.h **** 
 894:Core/Inc/arm_math.h **** 
 895:Core/Inc/arm_math.h ****   /*
 896:Core/Inc/arm_math.h ****    * @brief C custom defined QADD for M3 and M0 processors
 897:Core/Inc/arm_math.h ****    */
 898:Core/Inc/arm_math.h ****   static __INLINE int32_t __QADD(
 899:Core/Inc/arm_math.h ****   int32_t x,
 900:Core/Inc/arm_math.h ****   int32_t y)
 901:Core/Inc/arm_math.h ****   {
  97              		.loc 1 901 3
  98              		.cfi_startproc
  99              		@ args = 0, pretend = 0, frame = 8
 100              		@ frame_needed = 1, uses_anonymous_args = 0
 101 0000 B0B5     		push	{r4, r5, r7, lr}
 102              	.LCFI6:
 103              		.cfi_def_cfa_offset 16
 104              		.cfi_offset 4, -16
 105              		.cfi_offset 5, -12
 106              		.cfi_offset 7, -8
 107              		.cfi_offset 14, -4
 108 0002 82B0     		sub	sp, sp, #8
 109              	.LCFI7:
 110              		.cfi_def_cfa_offset 24
 111 0004 00AF     		add	r7, sp, #0
 112              	.LCFI8:
 113              		.cfi_def_cfa_register 7
 114 0006 7860     		str	r0, [r7, #4]
 115 0008 3960     		str	r1, [r7]
 902:Core/Inc/arm_math.h ****     return ((int32_t)(clip_q63_to_q31((q63_t)x + (q31_t)y)));
 116              		.loc 1 902 39
 117 000a 7B68     		ldr	r3, [r7, #4]
 118 000c 1846     		mov	r0, r3
 119 000e 4FEAE071 		asr	r1, r0, #31
 120              		.loc 1 902 50
 121 0012 3B68     		ldr	r3, [r7]
 122 0014 1A46     		mov	r2, r3
 123 0016 4FEAE273 		asr	r3, r2, #31
 124              		.loc 1 902 23
 125 001a 8418     		adds	r4, r0, r2
 126 001c 41EB0305 		adc	r5, r1, r3
 127 0020 2046     		mov	r0, r4
ARM GAS  /tmp/ccpEjOub.s 			page 19


 128 0022 2946     		mov	r1, r5
 129 0024 FFF7FEFF 		bl	clip_q63_to_q31
 130 0028 0346     		mov	r3, r0
 903:Core/Inc/arm_math.h ****   }
 131              		.loc 1 903 3
 132 002a 1846     		mov	r0, r3
 133 002c 0837     		adds	r7, r7, #8
 134              	.LCFI9:
 135              		.cfi_def_cfa_offset 16
 136 002e BD46     		mov	sp, r7
 137              	.LCFI10:
 138              		.cfi_def_cfa_register 13
 139              		@ sp needed
 140 0030 B0BD     		pop	{r4, r5, r7, pc}
 141              		.cfi_endproc
 142              	.LFE63:
 144              		.section	.text.__QSUB,"ax",%progbits
 145              		.align	1
 146              		.syntax unified
 147              		.thumb
 148              		.thumb_func
 149              		.fpu softvfp
 151              	__QSUB:
 152              	.LFB64:
 904:Core/Inc/arm_math.h **** 
 905:Core/Inc/arm_math.h **** 
 906:Core/Inc/arm_math.h ****   /*
 907:Core/Inc/arm_math.h ****    * @brief C custom defined QSUB for M3 and M0 processors
 908:Core/Inc/arm_math.h ****    */
 909:Core/Inc/arm_math.h ****   static __INLINE int32_t __QSUB(
 910:Core/Inc/arm_math.h ****   int32_t x,
 911:Core/Inc/arm_math.h ****   int32_t y)
 912:Core/Inc/arm_math.h ****   {
 153              		.loc 1 912 3
 154              		.cfi_startproc
 155              		@ args = 0, pretend = 0, frame = 8
 156              		@ frame_needed = 1, uses_anonymous_args = 0
 157 0000 B0B5     		push	{r4, r5, r7, lr}
 158              	.LCFI11:
 159              		.cfi_def_cfa_offset 16
 160              		.cfi_offset 4, -16
 161              		.cfi_offset 5, -12
 162              		.cfi_offset 7, -8
 163              		.cfi_offset 14, -4
 164 0002 82B0     		sub	sp, sp, #8
 165              	.LCFI12:
 166              		.cfi_def_cfa_offset 24
 167 0004 00AF     		add	r7, sp, #0
 168              	.LCFI13:
 169              		.cfi_def_cfa_register 7
 170 0006 7860     		str	r0, [r7, #4]
 171 0008 3960     		str	r1, [r7]
 913:Core/Inc/arm_math.h ****     return ((int32_t)(clip_q63_to_q31((q63_t)x - (q31_t)y)));
 172              		.loc 1 913 39
 173 000a 7B68     		ldr	r3, [r7, #4]
 174 000c 1846     		mov	r0, r3
 175 000e 4FEAE071 		asr	r1, r0, #31
ARM GAS  /tmp/ccpEjOub.s 			page 20


 176              		.loc 1 913 50
 177 0012 3B68     		ldr	r3, [r7]
 178 0014 1A46     		mov	r2, r3
 179 0016 4FEAE273 		asr	r3, r2, #31
 180              		.loc 1 913 23
 181 001a 841A     		subs	r4, r0, r2
 182 001c 61EB0305 		sbc	r5, r1, r3
 183 0020 2046     		mov	r0, r4
 184 0022 2946     		mov	r1, r5
 185 0024 FFF7FEFF 		bl	clip_q63_to_q31
 186 0028 0346     		mov	r3, r0
 914:Core/Inc/arm_math.h ****   }
 187              		.loc 1 914 3
 188 002a 1846     		mov	r0, r3
 189 002c 0837     		adds	r7, r7, #8
 190              	.LCFI14:
 191              		.cfi_def_cfa_offset 16
 192 002e BD46     		mov	sp, r7
 193              	.LCFI15:
 194              		.cfi_def_cfa_register 13
 195              		@ sp needed
 196 0030 B0BD     		pop	{r4, r5, r7, pc}
 197              		.cfi_endproc
 198              	.LFE64:
 200              		.section	.text.arm_clarke_q31,"ax",%progbits
 201              		.align	1
 202              		.syntax unified
 203              		.thumb
 204              		.thumb_func
 205              		.fpu softvfp
 207              	arm_clarke_q31:
 208              	.LFB77:
 915:Core/Inc/arm_math.h **** 
 916:Core/Inc/arm_math.h **** 
 917:Core/Inc/arm_math.h ****   /*
 918:Core/Inc/arm_math.h ****    * @brief C custom defined SMLAD for M3 and M0 processors
 919:Core/Inc/arm_math.h ****    */
 920:Core/Inc/arm_math.h ****   static __INLINE uint32_t __SMLAD(
 921:Core/Inc/arm_math.h ****   uint32_t x,
 922:Core/Inc/arm_math.h ****   uint32_t y,
 923:Core/Inc/arm_math.h ****   uint32_t sum)
 924:Core/Inc/arm_math.h ****   {
 925:Core/Inc/arm_math.h ****     return ((uint32_t)(((((q31_t)x << 16) >> 16) * (((q31_t)y << 16) >> 16)) +
 926:Core/Inc/arm_math.h ****                        ((((q31_t)x      ) >> 16) * (((q31_t)y      ) >> 16)) +
 927:Core/Inc/arm_math.h ****                        ( ((q31_t)sum    )                                  )   ));
 928:Core/Inc/arm_math.h ****   }
 929:Core/Inc/arm_math.h **** 
 930:Core/Inc/arm_math.h **** 
 931:Core/Inc/arm_math.h ****   /*
 932:Core/Inc/arm_math.h ****    * @brief C custom defined SMLADX for M3 and M0 processors
 933:Core/Inc/arm_math.h ****    */
 934:Core/Inc/arm_math.h ****   static __INLINE uint32_t __SMLADX(
 935:Core/Inc/arm_math.h ****   uint32_t x,
 936:Core/Inc/arm_math.h ****   uint32_t y,
 937:Core/Inc/arm_math.h ****   uint32_t sum)
 938:Core/Inc/arm_math.h ****   {
 939:Core/Inc/arm_math.h ****     return ((uint32_t)(((((q31_t)x << 16) >> 16) * (((q31_t)y      ) >> 16)) +
ARM GAS  /tmp/ccpEjOub.s 			page 21


 940:Core/Inc/arm_math.h ****                        ((((q31_t)x      ) >> 16) * (((q31_t)y << 16) >> 16)) +
 941:Core/Inc/arm_math.h ****                        ( ((q31_t)sum    )                                  )   ));
 942:Core/Inc/arm_math.h ****   }
 943:Core/Inc/arm_math.h **** 
 944:Core/Inc/arm_math.h **** 
 945:Core/Inc/arm_math.h ****   /*
 946:Core/Inc/arm_math.h ****    * @brief C custom defined SMLSDX for M3 and M0 processors
 947:Core/Inc/arm_math.h ****    */
 948:Core/Inc/arm_math.h ****   static __INLINE uint32_t __SMLSDX(
 949:Core/Inc/arm_math.h ****   uint32_t x,
 950:Core/Inc/arm_math.h ****   uint32_t y,
 951:Core/Inc/arm_math.h ****   uint32_t sum)
 952:Core/Inc/arm_math.h ****   {
 953:Core/Inc/arm_math.h ****     return ((uint32_t)(((((q31_t)x << 16) >> 16) * (((q31_t)y      ) >> 16)) -
 954:Core/Inc/arm_math.h ****                        ((((q31_t)x      ) >> 16) * (((q31_t)y << 16) >> 16)) +
 955:Core/Inc/arm_math.h ****                        ( ((q31_t)sum    )                                  )   ));
 956:Core/Inc/arm_math.h ****   }
 957:Core/Inc/arm_math.h **** 
 958:Core/Inc/arm_math.h **** 
 959:Core/Inc/arm_math.h ****   /*
 960:Core/Inc/arm_math.h ****    * @brief C custom defined SMLALD for M3 and M0 processors
 961:Core/Inc/arm_math.h ****    */
 962:Core/Inc/arm_math.h ****   static __INLINE uint64_t __SMLALD(
 963:Core/Inc/arm_math.h ****   uint32_t x,
 964:Core/Inc/arm_math.h ****   uint32_t y,
 965:Core/Inc/arm_math.h ****   uint64_t sum)
 966:Core/Inc/arm_math.h ****   {
 967:Core/Inc/arm_math.h **** /*  return (sum + ((q15_t) (x >> 16) * (q15_t) (y >> 16)) + ((q15_t) x * (q15_t) y)); */
 968:Core/Inc/arm_math.h ****     return ((uint64_t)(((((q31_t)x << 16) >> 16) * (((q31_t)y << 16) >> 16)) +
 969:Core/Inc/arm_math.h ****                        ((((q31_t)x      ) >> 16) * (((q31_t)y      ) >> 16)) +
 970:Core/Inc/arm_math.h ****                        ( ((q63_t)sum    )                                  )   ));
 971:Core/Inc/arm_math.h ****   }
 972:Core/Inc/arm_math.h **** 
 973:Core/Inc/arm_math.h **** 
 974:Core/Inc/arm_math.h ****   /*
 975:Core/Inc/arm_math.h ****    * @brief C custom defined SMLALDX for M3 and M0 processors
 976:Core/Inc/arm_math.h ****    */
 977:Core/Inc/arm_math.h ****   static __INLINE uint64_t __SMLALDX(
 978:Core/Inc/arm_math.h ****   uint32_t x,
 979:Core/Inc/arm_math.h ****   uint32_t y,
 980:Core/Inc/arm_math.h ****   uint64_t sum)
 981:Core/Inc/arm_math.h ****   {
 982:Core/Inc/arm_math.h **** /*  return (sum + ((q15_t) (x >> 16) * (q15_t) y)) + ((q15_t) x * (q15_t) (y >> 16)); */
 983:Core/Inc/arm_math.h ****     return ((uint64_t)(((((q31_t)x << 16) >> 16) * (((q31_t)y      ) >> 16)) +
 984:Core/Inc/arm_math.h ****                        ((((q31_t)x      ) >> 16) * (((q31_t)y << 16) >> 16)) +
 985:Core/Inc/arm_math.h ****                        ( ((q63_t)sum    )                                  )   ));
 986:Core/Inc/arm_math.h ****   }
 987:Core/Inc/arm_math.h **** 
 988:Core/Inc/arm_math.h **** 
 989:Core/Inc/arm_math.h ****   /*
 990:Core/Inc/arm_math.h ****    * @brief C custom defined SMUAD for M3 and M0 processors
 991:Core/Inc/arm_math.h ****    */
 992:Core/Inc/arm_math.h ****   static __INLINE uint32_t __SMUAD(
 993:Core/Inc/arm_math.h ****   uint32_t x,
 994:Core/Inc/arm_math.h ****   uint32_t y)
 995:Core/Inc/arm_math.h ****   {
 996:Core/Inc/arm_math.h ****     return ((uint32_t)(((((q31_t)x << 16) >> 16) * (((q31_t)y << 16) >> 16)) +
ARM GAS  /tmp/ccpEjOub.s 			page 22


 997:Core/Inc/arm_math.h ****                        ((((q31_t)x      ) >> 16) * (((q31_t)y      ) >> 16))   ));
 998:Core/Inc/arm_math.h ****   }
 999:Core/Inc/arm_math.h **** 
1000:Core/Inc/arm_math.h **** 
1001:Core/Inc/arm_math.h ****   /*
1002:Core/Inc/arm_math.h ****    * @brief C custom defined SMUSD for M3 and M0 processors
1003:Core/Inc/arm_math.h ****    */
1004:Core/Inc/arm_math.h ****   static __INLINE uint32_t __SMUSD(
1005:Core/Inc/arm_math.h ****   uint32_t x,
1006:Core/Inc/arm_math.h ****   uint32_t y)
1007:Core/Inc/arm_math.h ****   {
1008:Core/Inc/arm_math.h ****     return ((uint32_t)(((((q31_t)x << 16) >> 16) * (((q31_t)y << 16) >> 16)) -
1009:Core/Inc/arm_math.h ****                        ((((q31_t)x      ) >> 16) * (((q31_t)y      ) >> 16))   ));
1010:Core/Inc/arm_math.h ****   }
1011:Core/Inc/arm_math.h **** 
1012:Core/Inc/arm_math.h **** 
1013:Core/Inc/arm_math.h ****   /*
1014:Core/Inc/arm_math.h ****    * @brief C custom defined SXTB16 for M3 and M0 processors
1015:Core/Inc/arm_math.h ****    */
1016:Core/Inc/arm_math.h ****   static __INLINE uint32_t __SXTB16(
1017:Core/Inc/arm_math.h ****   uint32_t x)
1018:Core/Inc/arm_math.h ****   {
1019:Core/Inc/arm_math.h ****     return ((uint32_t)(((((q31_t)x << 24) >> 24) & (q31_t)0x0000FFFF) |
1020:Core/Inc/arm_math.h ****                        ((((q31_t)x <<  8) >>  8) & (q31_t)0xFFFF0000)  ));
1021:Core/Inc/arm_math.h ****   }
1022:Core/Inc/arm_math.h **** 
1023:Core/Inc/arm_math.h **** #endif /* defined (ARM_MATH_CM3) || defined (ARM_MATH_CM0_FAMILY) */
1024:Core/Inc/arm_math.h **** 
1025:Core/Inc/arm_math.h **** 
1026:Core/Inc/arm_math.h ****   /**
1027:Core/Inc/arm_math.h ****    * @brief Instance structure for the Q7 FIR filter.
1028:Core/Inc/arm_math.h ****    */
1029:Core/Inc/arm_math.h ****   typedef struct
1030:Core/Inc/arm_math.h ****   {
1031:Core/Inc/arm_math.h ****     uint16_t numTaps;        /**< number of filter coefficients in the filter. */
1032:Core/Inc/arm_math.h ****     q7_t *pState;            /**< points to the state variable array. The array is of length numTap
1033:Core/Inc/arm_math.h ****     q7_t *pCoeffs;           /**< points to the coefficient array. The array is of length numTaps.*
1034:Core/Inc/arm_math.h ****   } arm_fir_instance_q7;
1035:Core/Inc/arm_math.h **** 
1036:Core/Inc/arm_math.h ****   /**
1037:Core/Inc/arm_math.h ****    * @brief Instance structure for the Q15 FIR filter.
1038:Core/Inc/arm_math.h ****    */
1039:Core/Inc/arm_math.h ****   typedef struct
1040:Core/Inc/arm_math.h ****   {
1041:Core/Inc/arm_math.h ****     uint16_t numTaps;         /**< number of filter coefficients in the filter. */
1042:Core/Inc/arm_math.h ****     q15_t *pState;            /**< points to the state variable array. The array is of length numTa
1043:Core/Inc/arm_math.h ****     q15_t *pCoeffs;           /**< points to the coefficient array. The array is of length numTaps.
1044:Core/Inc/arm_math.h ****   } arm_fir_instance_q15;
1045:Core/Inc/arm_math.h **** 
1046:Core/Inc/arm_math.h ****   /**
1047:Core/Inc/arm_math.h ****    * @brief Instance structure for the Q31 FIR filter.
1048:Core/Inc/arm_math.h ****    */
1049:Core/Inc/arm_math.h ****   typedef struct
1050:Core/Inc/arm_math.h ****   {
1051:Core/Inc/arm_math.h ****     uint16_t numTaps;         /**< number of filter coefficients in the filter. */
1052:Core/Inc/arm_math.h ****     q31_t *pState;            /**< points to the state variable array. The array is of length numTa
1053:Core/Inc/arm_math.h ****     q31_t *pCoeffs;           /**< points to the coefficient array. The array is of length numTaps.
ARM GAS  /tmp/ccpEjOub.s 			page 23


1054:Core/Inc/arm_math.h ****   } arm_fir_instance_q31;
1055:Core/Inc/arm_math.h **** 
1056:Core/Inc/arm_math.h ****   /**
1057:Core/Inc/arm_math.h ****    * @brief Instance structure for the floating-point FIR filter.
1058:Core/Inc/arm_math.h ****    */
1059:Core/Inc/arm_math.h ****   typedef struct
1060:Core/Inc/arm_math.h ****   {
1061:Core/Inc/arm_math.h ****     uint16_t numTaps;     /**< number of filter coefficients in the filter. */
1062:Core/Inc/arm_math.h ****     float32_t *pState;    /**< points to the state variable array. The array is of length numTaps+b
1063:Core/Inc/arm_math.h ****     float32_t *pCoeffs;   /**< points to the coefficient array. The array is of length numTaps. */
1064:Core/Inc/arm_math.h ****   } arm_fir_instance_f32;
1065:Core/Inc/arm_math.h **** 
1066:Core/Inc/arm_math.h **** 
1067:Core/Inc/arm_math.h ****   /**
1068:Core/Inc/arm_math.h ****    * @brief Processing function for the Q7 FIR filter.
1069:Core/Inc/arm_math.h ****    * @param[in]  S          points to an instance of the Q7 FIR filter structure.
1070:Core/Inc/arm_math.h ****    * @param[in]  pSrc       points to the block of input data.
1071:Core/Inc/arm_math.h ****    * @param[out] pDst       points to the block of output data.
1072:Core/Inc/arm_math.h ****    * @param[in]  blockSize  number of samples to process.
1073:Core/Inc/arm_math.h ****    */
1074:Core/Inc/arm_math.h ****   void arm_fir_q7(
1075:Core/Inc/arm_math.h ****   const arm_fir_instance_q7 * S,
1076:Core/Inc/arm_math.h ****   q7_t * pSrc,
1077:Core/Inc/arm_math.h ****   q7_t * pDst,
1078:Core/Inc/arm_math.h ****   uint32_t blockSize);
1079:Core/Inc/arm_math.h **** 
1080:Core/Inc/arm_math.h **** 
1081:Core/Inc/arm_math.h ****   /**
1082:Core/Inc/arm_math.h ****    * @brief  Initialization function for the Q7 FIR filter.
1083:Core/Inc/arm_math.h ****    * @param[in,out] S          points to an instance of the Q7 FIR structure.
1084:Core/Inc/arm_math.h ****    * @param[in]     numTaps    Number of filter coefficients in the filter.
1085:Core/Inc/arm_math.h ****    * @param[in]     pCoeffs    points to the filter coefficients.
1086:Core/Inc/arm_math.h ****    * @param[in]     pState     points to the state buffer.
1087:Core/Inc/arm_math.h ****    * @param[in]     blockSize  number of samples that are processed.
1088:Core/Inc/arm_math.h ****    */
1089:Core/Inc/arm_math.h ****   void arm_fir_init_q7(
1090:Core/Inc/arm_math.h ****   arm_fir_instance_q7 * S,
1091:Core/Inc/arm_math.h ****   uint16_t numTaps,
1092:Core/Inc/arm_math.h ****   q7_t * pCoeffs,
1093:Core/Inc/arm_math.h ****   q7_t * pState,
1094:Core/Inc/arm_math.h ****   uint32_t blockSize);
1095:Core/Inc/arm_math.h **** 
1096:Core/Inc/arm_math.h **** 
1097:Core/Inc/arm_math.h ****   /**
1098:Core/Inc/arm_math.h ****    * @brief Processing function for the Q15 FIR filter.
1099:Core/Inc/arm_math.h ****    * @param[in]  S          points to an instance of the Q15 FIR structure.
1100:Core/Inc/arm_math.h ****    * @param[in]  pSrc       points to the block of input data.
1101:Core/Inc/arm_math.h ****    * @param[out] pDst       points to the block of output data.
1102:Core/Inc/arm_math.h ****    * @param[in]  blockSize  number of samples to process.
1103:Core/Inc/arm_math.h ****    */
1104:Core/Inc/arm_math.h ****   void arm_fir_q15(
1105:Core/Inc/arm_math.h ****   const arm_fir_instance_q15 * S,
1106:Core/Inc/arm_math.h ****   q15_t * pSrc,
1107:Core/Inc/arm_math.h ****   q15_t * pDst,
1108:Core/Inc/arm_math.h ****   uint32_t blockSize);
1109:Core/Inc/arm_math.h **** 
1110:Core/Inc/arm_math.h **** 
ARM GAS  /tmp/ccpEjOub.s 			page 24


1111:Core/Inc/arm_math.h ****   /**
1112:Core/Inc/arm_math.h ****    * @brief Processing function for the fast Q15 FIR filter for Cortex-M3 and Cortex-M4.
1113:Core/Inc/arm_math.h ****    * @param[in]  S          points to an instance of the Q15 FIR filter structure.
1114:Core/Inc/arm_math.h ****    * @param[in]  pSrc       points to the block of input data.
1115:Core/Inc/arm_math.h ****    * @param[out] pDst       points to the block of output data.
1116:Core/Inc/arm_math.h ****    * @param[in]  blockSize  number of samples to process.
1117:Core/Inc/arm_math.h ****    */
1118:Core/Inc/arm_math.h ****   void arm_fir_fast_q15(
1119:Core/Inc/arm_math.h ****   const arm_fir_instance_q15 * S,
1120:Core/Inc/arm_math.h ****   q15_t * pSrc,
1121:Core/Inc/arm_math.h ****   q15_t * pDst,
1122:Core/Inc/arm_math.h ****   uint32_t blockSize);
1123:Core/Inc/arm_math.h **** 
1124:Core/Inc/arm_math.h **** 
1125:Core/Inc/arm_math.h ****   /**
1126:Core/Inc/arm_math.h ****    * @brief  Initialization function for the Q15 FIR filter.
1127:Core/Inc/arm_math.h ****    * @param[in,out] S          points to an instance of the Q15 FIR filter structure.
1128:Core/Inc/arm_math.h ****    * @param[in]     numTaps    Number of filter coefficients in the filter. Must be even and greate
1129:Core/Inc/arm_math.h ****    * @param[in]     pCoeffs    points to the filter coefficients.
1130:Core/Inc/arm_math.h ****    * @param[in]     pState     points to the state buffer.
1131:Core/Inc/arm_math.h ****    * @param[in]     blockSize  number of samples that are processed at a time.
1132:Core/Inc/arm_math.h ****    * @return The function returns ARM_MATH_SUCCESS if initialization was successful or ARM_MATH_ARG
1133:Core/Inc/arm_math.h ****    * <code>numTaps</code> is not a supported value.
1134:Core/Inc/arm_math.h ****    */
1135:Core/Inc/arm_math.h ****   arm_status arm_fir_init_q15(
1136:Core/Inc/arm_math.h ****   arm_fir_instance_q15 * S,
1137:Core/Inc/arm_math.h ****   uint16_t numTaps,
1138:Core/Inc/arm_math.h ****   q15_t * pCoeffs,
1139:Core/Inc/arm_math.h ****   q15_t * pState,
1140:Core/Inc/arm_math.h ****   uint32_t blockSize);
1141:Core/Inc/arm_math.h **** 
1142:Core/Inc/arm_math.h **** 
1143:Core/Inc/arm_math.h ****   /**
1144:Core/Inc/arm_math.h ****    * @brief Processing function for the Q31 FIR filter.
1145:Core/Inc/arm_math.h ****    * @param[in]  S          points to an instance of the Q31 FIR filter structure.
1146:Core/Inc/arm_math.h ****    * @param[in]  pSrc       points to the block of input data.
1147:Core/Inc/arm_math.h ****    * @param[out] pDst       points to the block of output data.
1148:Core/Inc/arm_math.h ****    * @param[in]  blockSize  number of samples to process.
1149:Core/Inc/arm_math.h ****    */
1150:Core/Inc/arm_math.h ****   void arm_fir_q31(
1151:Core/Inc/arm_math.h ****   const arm_fir_instance_q31 * S,
1152:Core/Inc/arm_math.h ****   q31_t * pSrc,
1153:Core/Inc/arm_math.h ****   q31_t * pDst,
1154:Core/Inc/arm_math.h ****   uint32_t blockSize);
1155:Core/Inc/arm_math.h **** 
1156:Core/Inc/arm_math.h **** 
1157:Core/Inc/arm_math.h ****   /**
1158:Core/Inc/arm_math.h ****    * @brief Processing function for the fast Q31 FIR filter for Cortex-M3 and Cortex-M4.
1159:Core/Inc/arm_math.h ****    * @param[in]  S          points to an instance of the Q31 FIR structure.
1160:Core/Inc/arm_math.h ****    * @param[in]  pSrc       points to the block of input data.
1161:Core/Inc/arm_math.h ****    * @param[out] pDst       points to the block of output data.
1162:Core/Inc/arm_math.h ****    * @param[in]  blockSize  number of samples to process.
1163:Core/Inc/arm_math.h ****    */
1164:Core/Inc/arm_math.h ****   void arm_fir_fast_q31(
1165:Core/Inc/arm_math.h ****   const arm_fir_instance_q31 * S,
1166:Core/Inc/arm_math.h ****   q31_t * pSrc,
1167:Core/Inc/arm_math.h ****   q31_t * pDst,
ARM GAS  /tmp/ccpEjOub.s 			page 25


1168:Core/Inc/arm_math.h ****   uint32_t blockSize);
1169:Core/Inc/arm_math.h **** 
1170:Core/Inc/arm_math.h **** 
1171:Core/Inc/arm_math.h ****   /**
1172:Core/Inc/arm_math.h ****    * @brief  Initialization function for the Q31 FIR filter.
1173:Core/Inc/arm_math.h ****    * @param[in,out] S          points to an instance of the Q31 FIR structure.
1174:Core/Inc/arm_math.h ****    * @param[in]     numTaps    Number of filter coefficients in the filter.
1175:Core/Inc/arm_math.h ****    * @param[in]     pCoeffs    points to the filter coefficients.
1176:Core/Inc/arm_math.h ****    * @param[in]     pState     points to the state buffer.
1177:Core/Inc/arm_math.h ****    * @param[in]     blockSize  number of samples that are processed at a time.
1178:Core/Inc/arm_math.h ****    */
1179:Core/Inc/arm_math.h ****   void arm_fir_init_q31(
1180:Core/Inc/arm_math.h ****   arm_fir_instance_q31 * S,
1181:Core/Inc/arm_math.h ****   uint16_t numTaps,
1182:Core/Inc/arm_math.h ****   q31_t * pCoeffs,
1183:Core/Inc/arm_math.h ****   q31_t * pState,
1184:Core/Inc/arm_math.h ****   uint32_t blockSize);
1185:Core/Inc/arm_math.h **** 
1186:Core/Inc/arm_math.h **** 
1187:Core/Inc/arm_math.h ****   /**
1188:Core/Inc/arm_math.h ****    * @brief Processing function for the floating-point FIR filter.
1189:Core/Inc/arm_math.h ****    * @param[in]  S          points to an instance of the floating-point FIR structure.
1190:Core/Inc/arm_math.h ****    * @param[in]  pSrc       points to the block of input data.
1191:Core/Inc/arm_math.h ****    * @param[out] pDst       points to the block of output data.
1192:Core/Inc/arm_math.h ****    * @param[in]  blockSize  number of samples to process.
1193:Core/Inc/arm_math.h ****    */
1194:Core/Inc/arm_math.h ****   void arm_fir_f32(
1195:Core/Inc/arm_math.h ****   const arm_fir_instance_f32 * S,
1196:Core/Inc/arm_math.h ****   float32_t * pSrc,
1197:Core/Inc/arm_math.h ****   float32_t * pDst,
1198:Core/Inc/arm_math.h ****   uint32_t blockSize);
1199:Core/Inc/arm_math.h **** 
1200:Core/Inc/arm_math.h **** 
1201:Core/Inc/arm_math.h ****   /**
1202:Core/Inc/arm_math.h ****    * @brief  Initialization function for the floating-point FIR filter.
1203:Core/Inc/arm_math.h ****    * @param[in,out] S          points to an instance of the floating-point FIR filter structure.
1204:Core/Inc/arm_math.h ****    * @param[in]     numTaps    Number of filter coefficients in the filter.
1205:Core/Inc/arm_math.h ****    * @param[in]     pCoeffs    points to the filter coefficients.
1206:Core/Inc/arm_math.h ****    * @param[in]     pState     points to the state buffer.
1207:Core/Inc/arm_math.h ****    * @param[in]     blockSize  number of samples that are processed at a time.
1208:Core/Inc/arm_math.h ****    */
1209:Core/Inc/arm_math.h ****   void arm_fir_init_f32(
1210:Core/Inc/arm_math.h ****   arm_fir_instance_f32 * S,
1211:Core/Inc/arm_math.h ****   uint16_t numTaps,
1212:Core/Inc/arm_math.h ****   float32_t * pCoeffs,
1213:Core/Inc/arm_math.h ****   float32_t * pState,
1214:Core/Inc/arm_math.h ****   uint32_t blockSize);
1215:Core/Inc/arm_math.h **** 
1216:Core/Inc/arm_math.h **** 
1217:Core/Inc/arm_math.h ****   /**
1218:Core/Inc/arm_math.h ****    * @brief Instance structure for the Q15 Biquad cascade filter.
1219:Core/Inc/arm_math.h ****    */
1220:Core/Inc/arm_math.h ****   typedef struct
1221:Core/Inc/arm_math.h ****   {
1222:Core/Inc/arm_math.h ****     int8_t numStages;        /**< number of 2nd order stages in the filter.  Overall order is 2*num
1223:Core/Inc/arm_math.h ****     q15_t *pState;           /**< Points to the array of state coefficients.  The array is of lengt
1224:Core/Inc/arm_math.h ****     q15_t *pCoeffs;          /**< Points to the array of coefficients.  The array is of length 5*nu
ARM GAS  /tmp/ccpEjOub.s 			page 26


1225:Core/Inc/arm_math.h ****     int8_t postShift;        /**< Additional shift, in bits, applied to each output sample. */
1226:Core/Inc/arm_math.h ****   } arm_biquad_casd_df1_inst_q15;
1227:Core/Inc/arm_math.h **** 
1228:Core/Inc/arm_math.h ****   /**
1229:Core/Inc/arm_math.h ****    * @brief Instance structure for the Q31 Biquad cascade filter.
1230:Core/Inc/arm_math.h ****    */
1231:Core/Inc/arm_math.h ****   typedef struct
1232:Core/Inc/arm_math.h ****   {
1233:Core/Inc/arm_math.h ****     uint32_t numStages;      /**< number of 2nd order stages in the filter.  Overall order is 2*num
1234:Core/Inc/arm_math.h ****     q31_t *pState;           /**< Points to the array of state coefficients.  The array is of lengt
1235:Core/Inc/arm_math.h ****     q31_t *pCoeffs;          /**< Points to the array of coefficients.  The array is of length 5*nu
1236:Core/Inc/arm_math.h ****     uint8_t postShift;       /**< Additional shift, in bits, applied to each output sample. */
1237:Core/Inc/arm_math.h ****   } arm_biquad_casd_df1_inst_q31;
1238:Core/Inc/arm_math.h **** 
1239:Core/Inc/arm_math.h ****   /**
1240:Core/Inc/arm_math.h ****    * @brief Instance structure for the floating-point Biquad cascade filter.
1241:Core/Inc/arm_math.h ****    */
1242:Core/Inc/arm_math.h ****   typedef struct
1243:Core/Inc/arm_math.h ****   {
1244:Core/Inc/arm_math.h ****     uint32_t numStages;      /**< number of 2nd order stages in the filter.  Overall order is 2*num
1245:Core/Inc/arm_math.h ****     float32_t *pState;       /**< Points to the array of state coefficients.  The array is of lengt
1246:Core/Inc/arm_math.h ****     float32_t *pCoeffs;      /**< Points to the array of coefficients.  The array is of length 5*nu
1247:Core/Inc/arm_math.h ****   } arm_biquad_casd_df1_inst_f32;
1248:Core/Inc/arm_math.h **** 
1249:Core/Inc/arm_math.h **** 
1250:Core/Inc/arm_math.h ****   /**
1251:Core/Inc/arm_math.h ****    * @brief Processing function for the Q15 Biquad cascade filter.
1252:Core/Inc/arm_math.h ****    * @param[in]  S          points to an instance of the Q15 Biquad cascade structure.
1253:Core/Inc/arm_math.h ****    * @param[in]  pSrc       points to the block of input data.
1254:Core/Inc/arm_math.h ****    * @param[out] pDst       points to the block of output data.
1255:Core/Inc/arm_math.h ****    * @param[in]  blockSize  number of samples to process.
1256:Core/Inc/arm_math.h ****    */
1257:Core/Inc/arm_math.h ****   void arm_biquad_cascade_df1_q15(
1258:Core/Inc/arm_math.h ****   const arm_biquad_casd_df1_inst_q15 * S,
1259:Core/Inc/arm_math.h ****   q15_t * pSrc,
1260:Core/Inc/arm_math.h ****   q15_t * pDst,
1261:Core/Inc/arm_math.h ****   uint32_t blockSize);
1262:Core/Inc/arm_math.h **** 
1263:Core/Inc/arm_math.h **** 
1264:Core/Inc/arm_math.h ****   /**
1265:Core/Inc/arm_math.h ****    * @brief  Initialization function for the Q15 Biquad cascade filter.
1266:Core/Inc/arm_math.h ****    * @param[in,out] S          points to an instance of the Q15 Biquad cascade structure.
1267:Core/Inc/arm_math.h ****    * @param[in]     numStages  number of 2nd order stages in the filter.
1268:Core/Inc/arm_math.h ****    * @param[in]     pCoeffs    points to the filter coefficients.
1269:Core/Inc/arm_math.h ****    * @param[in]     pState     points to the state buffer.
1270:Core/Inc/arm_math.h ****    * @param[in]     postShift  Shift to be applied to the output. Varies according to the coefficie
1271:Core/Inc/arm_math.h ****    */
1272:Core/Inc/arm_math.h ****   void arm_biquad_cascade_df1_init_q15(
1273:Core/Inc/arm_math.h ****   arm_biquad_casd_df1_inst_q15 * S,
1274:Core/Inc/arm_math.h ****   uint8_t numStages,
1275:Core/Inc/arm_math.h ****   q15_t * pCoeffs,
1276:Core/Inc/arm_math.h ****   q15_t * pState,
1277:Core/Inc/arm_math.h ****   int8_t postShift);
1278:Core/Inc/arm_math.h **** 
1279:Core/Inc/arm_math.h **** 
1280:Core/Inc/arm_math.h ****   /**
1281:Core/Inc/arm_math.h ****    * @brief Fast but less precise processing function for the Q15 Biquad cascade filter for Cortex-
ARM GAS  /tmp/ccpEjOub.s 			page 27


1282:Core/Inc/arm_math.h ****    * @param[in]  S          points to an instance of the Q15 Biquad cascade structure.
1283:Core/Inc/arm_math.h ****    * @param[in]  pSrc       points to the block of input data.
1284:Core/Inc/arm_math.h ****    * @param[out] pDst       points to the block of output data.
1285:Core/Inc/arm_math.h ****    * @param[in]  blockSize  number of samples to process.
1286:Core/Inc/arm_math.h ****    */
1287:Core/Inc/arm_math.h ****   void arm_biquad_cascade_df1_fast_q15(
1288:Core/Inc/arm_math.h ****   const arm_biquad_casd_df1_inst_q15 * S,
1289:Core/Inc/arm_math.h ****   q15_t * pSrc,
1290:Core/Inc/arm_math.h ****   q15_t * pDst,
1291:Core/Inc/arm_math.h ****   uint32_t blockSize);
1292:Core/Inc/arm_math.h **** 
1293:Core/Inc/arm_math.h **** 
1294:Core/Inc/arm_math.h ****   /**
1295:Core/Inc/arm_math.h ****    * @brief Processing function for the Q31 Biquad cascade filter
1296:Core/Inc/arm_math.h ****    * @param[in]  S          points to an instance of the Q31 Biquad cascade structure.
1297:Core/Inc/arm_math.h ****    * @param[in]  pSrc       points to the block of input data.
1298:Core/Inc/arm_math.h ****    * @param[out] pDst       points to the block of output data.
1299:Core/Inc/arm_math.h ****    * @param[in]  blockSize  number of samples to process.
1300:Core/Inc/arm_math.h ****    */
1301:Core/Inc/arm_math.h ****   void arm_biquad_cascade_df1_q31(
1302:Core/Inc/arm_math.h ****   const arm_biquad_casd_df1_inst_q31 * S,
1303:Core/Inc/arm_math.h ****   q31_t * pSrc,
1304:Core/Inc/arm_math.h ****   q31_t * pDst,
1305:Core/Inc/arm_math.h ****   uint32_t blockSize);
1306:Core/Inc/arm_math.h **** 
1307:Core/Inc/arm_math.h **** 
1308:Core/Inc/arm_math.h ****   /**
1309:Core/Inc/arm_math.h ****    * @brief Fast but less precise processing function for the Q31 Biquad cascade filter for Cortex-
1310:Core/Inc/arm_math.h ****    * @param[in]  S          points to an instance of the Q31 Biquad cascade structure.
1311:Core/Inc/arm_math.h ****    * @param[in]  pSrc       points to the block of input data.
1312:Core/Inc/arm_math.h ****    * @param[out] pDst       points to the block of output data.
1313:Core/Inc/arm_math.h ****    * @param[in]  blockSize  number of samples to process.
1314:Core/Inc/arm_math.h ****    */
1315:Core/Inc/arm_math.h ****   void arm_biquad_cascade_df1_fast_q31(
1316:Core/Inc/arm_math.h ****   const arm_biquad_casd_df1_inst_q31 * S,
1317:Core/Inc/arm_math.h ****   q31_t * pSrc,
1318:Core/Inc/arm_math.h ****   q31_t * pDst,
1319:Core/Inc/arm_math.h ****   uint32_t blockSize);
1320:Core/Inc/arm_math.h **** 
1321:Core/Inc/arm_math.h **** 
1322:Core/Inc/arm_math.h ****   /**
1323:Core/Inc/arm_math.h ****    * @brief  Initialization function for the Q31 Biquad cascade filter.
1324:Core/Inc/arm_math.h ****    * @param[in,out] S          points to an instance of the Q31 Biquad cascade structure.
1325:Core/Inc/arm_math.h ****    * @param[in]     numStages  number of 2nd order stages in the filter.
1326:Core/Inc/arm_math.h ****    * @param[in]     pCoeffs    points to the filter coefficients.
1327:Core/Inc/arm_math.h ****    * @param[in]     pState     points to the state buffer.
1328:Core/Inc/arm_math.h ****    * @param[in]     postShift  Shift to be applied to the output. Varies according to the coefficie
1329:Core/Inc/arm_math.h ****    */
1330:Core/Inc/arm_math.h ****   void arm_biquad_cascade_df1_init_q31(
1331:Core/Inc/arm_math.h ****   arm_biquad_casd_df1_inst_q31 * S,
1332:Core/Inc/arm_math.h ****   uint8_t numStages,
1333:Core/Inc/arm_math.h ****   q31_t * pCoeffs,
1334:Core/Inc/arm_math.h ****   q31_t * pState,
1335:Core/Inc/arm_math.h ****   int8_t postShift);
1336:Core/Inc/arm_math.h **** 
1337:Core/Inc/arm_math.h **** 
1338:Core/Inc/arm_math.h ****   /**
ARM GAS  /tmp/ccpEjOub.s 			page 28


1339:Core/Inc/arm_math.h ****    * @brief Processing function for the floating-point Biquad cascade filter.
1340:Core/Inc/arm_math.h ****    * @param[in]  S          points to an instance of the floating-point Biquad cascade structure.
1341:Core/Inc/arm_math.h ****    * @param[in]  pSrc       points to the block of input data.
1342:Core/Inc/arm_math.h ****    * @param[out] pDst       points to the block of output data.
1343:Core/Inc/arm_math.h ****    * @param[in]  blockSize  number of samples to process.
1344:Core/Inc/arm_math.h ****    */
1345:Core/Inc/arm_math.h ****   void arm_biquad_cascade_df1_f32(
1346:Core/Inc/arm_math.h ****   const arm_biquad_casd_df1_inst_f32 * S,
1347:Core/Inc/arm_math.h ****   float32_t * pSrc,
1348:Core/Inc/arm_math.h ****   float32_t * pDst,
1349:Core/Inc/arm_math.h ****   uint32_t blockSize);
1350:Core/Inc/arm_math.h **** 
1351:Core/Inc/arm_math.h **** 
1352:Core/Inc/arm_math.h ****   /**
1353:Core/Inc/arm_math.h ****    * @brief  Initialization function for the floating-point Biquad cascade filter.
1354:Core/Inc/arm_math.h ****    * @param[in,out] S          points to an instance of the floating-point Biquad cascade structure
1355:Core/Inc/arm_math.h ****    * @param[in]     numStages  number of 2nd order stages in the filter.
1356:Core/Inc/arm_math.h ****    * @param[in]     pCoeffs    points to the filter coefficients.
1357:Core/Inc/arm_math.h ****    * @param[in]     pState     points to the state buffer.
1358:Core/Inc/arm_math.h ****    */
1359:Core/Inc/arm_math.h ****   void arm_biquad_cascade_df1_init_f32(
1360:Core/Inc/arm_math.h ****   arm_biquad_casd_df1_inst_f32 * S,
1361:Core/Inc/arm_math.h ****   uint8_t numStages,
1362:Core/Inc/arm_math.h ****   float32_t * pCoeffs,
1363:Core/Inc/arm_math.h ****   float32_t * pState);
1364:Core/Inc/arm_math.h **** 
1365:Core/Inc/arm_math.h **** 
1366:Core/Inc/arm_math.h ****   /**
1367:Core/Inc/arm_math.h ****    * @brief Instance structure for the floating-point matrix structure.
1368:Core/Inc/arm_math.h ****    */
1369:Core/Inc/arm_math.h ****   typedef struct
1370:Core/Inc/arm_math.h ****   {
1371:Core/Inc/arm_math.h ****     uint16_t numRows;     /**< number of rows of the matrix.     */
1372:Core/Inc/arm_math.h ****     uint16_t numCols;     /**< number of columns of the matrix.  */
1373:Core/Inc/arm_math.h ****     float32_t *pData;     /**< points to the data of the matrix. */
1374:Core/Inc/arm_math.h ****   } arm_matrix_instance_f32;
1375:Core/Inc/arm_math.h **** 
1376:Core/Inc/arm_math.h **** 
1377:Core/Inc/arm_math.h ****   /**
1378:Core/Inc/arm_math.h ****    * @brief Instance structure for the floating-point matrix structure.
1379:Core/Inc/arm_math.h ****    */
1380:Core/Inc/arm_math.h ****   typedef struct
1381:Core/Inc/arm_math.h ****   {
1382:Core/Inc/arm_math.h ****     uint16_t numRows;     /**< number of rows of the matrix.     */
1383:Core/Inc/arm_math.h ****     uint16_t numCols;     /**< number of columns of the matrix.  */
1384:Core/Inc/arm_math.h ****     float64_t *pData;     /**< points to the data of the matrix. */
1385:Core/Inc/arm_math.h ****   } arm_matrix_instance_f64;
1386:Core/Inc/arm_math.h **** 
1387:Core/Inc/arm_math.h ****   /**
1388:Core/Inc/arm_math.h ****    * @brief Instance structure for the Q15 matrix structure.
1389:Core/Inc/arm_math.h ****    */
1390:Core/Inc/arm_math.h ****   typedef struct
1391:Core/Inc/arm_math.h ****   {
1392:Core/Inc/arm_math.h ****     uint16_t numRows;     /**< number of rows of the matrix.     */
1393:Core/Inc/arm_math.h ****     uint16_t numCols;     /**< number of columns of the matrix.  */
1394:Core/Inc/arm_math.h ****     q15_t *pData;         /**< points to the data of the matrix. */
1395:Core/Inc/arm_math.h ****   } arm_matrix_instance_q15;
ARM GAS  /tmp/ccpEjOub.s 			page 29


1396:Core/Inc/arm_math.h **** 
1397:Core/Inc/arm_math.h ****   /**
1398:Core/Inc/arm_math.h ****    * @brief Instance structure for the Q31 matrix structure.
1399:Core/Inc/arm_math.h ****    */
1400:Core/Inc/arm_math.h ****   typedef struct
1401:Core/Inc/arm_math.h ****   {
1402:Core/Inc/arm_math.h ****     uint16_t numRows;     /**< number of rows of the matrix.     */
1403:Core/Inc/arm_math.h ****     uint16_t numCols;     /**< number of columns of the matrix.  */
1404:Core/Inc/arm_math.h ****     q31_t *pData;         /**< points to the data of the matrix. */
1405:Core/Inc/arm_math.h ****   } arm_matrix_instance_q31;
1406:Core/Inc/arm_math.h **** 
1407:Core/Inc/arm_math.h **** 
1408:Core/Inc/arm_math.h ****   /**
1409:Core/Inc/arm_math.h ****    * @brief Floating-point matrix addition.
1410:Core/Inc/arm_math.h ****    * @param[in]  pSrcA  points to the first input matrix structure
1411:Core/Inc/arm_math.h ****    * @param[in]  pSrcB  points to the second input matrix structure
1412:Core/Inc/arm_math.h ****    * @param[out] pDst   points to output matrix structure
1413:Core/Inc/arm_math.h ****    * @return     The function returns either
1414:Core/Inc/arm_math.h ****    * <code>ARM_MATH_SIZE_MISMATCH</code> or <code>ARM_MATH_SUCCESS</code> based on the outcome of s
1415:Core/Inc/arm_math.h ****    */
1416:Core/Inc/arm_math.h ****   arm_status arm_mat_add_f32(
1417:Core/Inc/arm_math.h ****   const arm_matrix_instance_f32 * pSrcA,
1418:Core/Inc/arm_math.h ****   const arm_matrix_instance_f32 * pSrcB,
1419:Core/Inc/arm_math.h ****   arm_matrix_instance_f32 * pDst);
1420:Core/Inc/arm_math.h **** 
1421:Core/Inc/arm_math.h **** 
1422:Core/Inc/arm_math.h ****   /**
1423:Core/Inc/arm_math.h ****    * @brief Q15 matrix addition.
1424:Core/Inc/arm_math.h ****    * @param[in]   pSrcA  points to the first input matrix structure
1425:Core/Inc/arm_math.h ****    * @param[in]   pSrcB  points to the second input matrix structure
1426:Core/Inc/arm_math.h ****    * @param[out]  pDst   points to output matrix structure
1427:Core/Inc/arm_math.h ****    * @return     The function returns either
1428:Core/Inc/arm_math.h ****    * <code>ARM_MATH_SIZE_MISMATCH</code> or <code>ARM_MATH_SUCCESS</code> based on the outcome of s
1429:Core/Inc/arm_math.h ****    */
1430:Core/Inc/arm_math.h ****   arm_status arm_mat_add_q15(
1431:Core/Inc/arm_math.h ****   const arm_matrix_instance_q15 * pSrcA,
1432:Core/Inc/arm_math.h ****   const arm_matrix_instance_q15 * pSrcB,
1433:Core/Inc/arm_math.h ****   arm_matrix_instance_q15 * pDst);
1434:Core/Inc/arm_math.h **** 
1435:Core/Inc/arm_math.h **** 
1436:Core/Inc/arm_math.h ****   /**
1437:Core/Inc/arm_math.h ****    * @brief Q31 matrix addition.
1438:Core/Inc/arm_math.h ****    * @param[in]  pSrcA  points to the first input matrix structure
1439:Core/Inc/arm_math.h ****    * @param[in]  pSrcB  points to the second input matrix structure
1440:Core/Inc/arm_math.h ****    * @param[out] pDst   points to output matrix structure
1441:Core/Inc/arm_math.h ****    * @return     The function returns either
1442:Core/Inc/arm_math.h ****    * <code>ARM_MATH_SIZE_MISMATCH</code> or <code>ARM_MATH_SUCCESS</code> based on the outcome of s
1443:Core/Inc/arm_math.h ****    */
1444:Core/Inc/arm_math.h ****   arm_status arm_mat_add_q31(
1445:Core/Inc/arm_math.h ****   const arm_matrix_instance_q31 * pSrcA,
1446:Core/Inc/arm_math.h ****   const arm_matrix_instance_q31 * pSrcB,
1447:Core/Inc/arm_math.h ****   arm_matrix_instance_q31 * pDst);
1448:Core/Inc/arm_math.h **** 
1449:Core/Inc/arm_math.h **** 
1450:Core/Inc/arm_math.h ****   /**
1451:Core/Inc/arm_math.h ****    * @brief Floating-point, complex, matrix multiplication.
1452:Core/Inc/arm_math.h ****    * @param[in]  pSrcA  points to the first input matrix structure
ARM GAS  /tmp/ccpEjOub.s 			page 30


1453:Core/Inc/arm_math.h ****    * @param[in]  pSrcB  points to the second input matrix structure
1454:Core/Inc/arm_math.h ****    * @param[out] pDst   points to output matrix structure
1455:Core/Inc/arm_math.h ****    * @return     The function returns either
1456:Core/Inc/arm_math.h ****    * <code>ARM_MATH_SIZE_MISMATCH</code> or <code>ARM_MATH_SUCCESS</code> based on the outcome of s
1457:Core/Inc/arm_math.h ****    */
1458:Core/Inc/arm_math.h ****   arm_status arm_mat_cmplx_mult_f32(
1459:Core/Inc/arm_math.h ****   const arm_matrix_instance_f32 * pSrcA,
1460:Core/Inc/arm_math.h ****   const arm_matrix_instance_f32 * pSrcB,
1461:Core/Inc/arm_math.h ****   arm_matrix_instance_f32 * pDst);
1462:Core/Inc/arm_math.h **** 
1463:Core/Inc/arm_math.h **** 
1464:Core/Inc/arm_math.h ****   /**
1465:Core/Inc/arm_math.h ****    * @brief Q15, complex,  matrix multiplication.
1466:Core/Inc/arm_math.h ****    * @param[in]  pSrcA  points to the first input matrix structure
1467:Core/Inc/arm_math.h ****    * @param[in]  pSrcB  points to the second input matrix structure
1468:Core/Inc/arm_math.h ****    * @param[out] pDst   points to output matrix structure
1469:Core/Inc/arm_math.h ****    * @return     The function returns either
1470:Core/Inc/arm_math.h ****    * <code>ARM_MATH_SIZE_MISMATCH</code> or <code>ARM_MATH_SUCCESS</code> based on the outcome of s
1471:Core/Inc/arm_math.h ****    */
1472:Core/Inc/arm_math.h ****   arm_status arm_mat_cmplx_mult_q15(
1473:Core/Inc/arm_math.h ****   const arm_matrix_instance_q15 * pSrcA,
1474:Core/Inc/arm_math.h ****   const arm_matrix_instance_q15 * pSrcB,
1475:Core/Inc/arm_math.h ****   arm_matrix_instance_q15 * pDst,
1476:Core/Inc/arm_math.h ****   q15_t * pScratch);
1477:Core/Inc/arm_math.h **** 
1478:Core/Inc/arm_math.h **** 
1479:Core/Inc/arm_math.h ****   /**
1480:Core/Inc/arm_math.h ****    * @brief Q31, complex, matrix multiplication.
1481:Core/Inc/arm_math.h ****    * @param[in]  pSrcA  points to the first input matrix structure
1482:Core/Inc/arm_math.h ****    * @param[in]  pSrcB  points to the second input matrix structure
1483:Core/Inc/arm_math.h ****    * @param[out] pDst   points to output matrix structure
1484:Core/Inc/arm_math.h ****    * @return     The function returns either
1485:Core/Inc/arm_math.h ****    * <code>ARM_MATH_SIZE_MISMATCH</code> or <code>ARM_MATH_SUCCESS</code> based on the outcome of s
1486:Core/Inc/arm_math.h ****    */
1487:Core/Inc/arm_math.h ****   arm_status arm_mat_cmplx_mult_q31(
1488:Core/Inc/arm_math.h ****   const arm_matrix_instance_q31 * pSrcA,
1489:Core/Inc/arm_math.h ****   const arm_matrix_instance_q31 * pSrcB,
1490:Core/Inc/arm_math.h ****   arm_matrix_instance_q31 * pDst);
1491:Core/Inc/arm_math.h **** 
1492:Core/Inc/arm_math.h **** 
1493:Core/Inc/arm_math.h ****   /**
1494:Core/Inc/arm_math.h ****    * @brief Floating-point matrix transpose.
1495:Core/Inc/arm_math.h ****    * @param[in]  pSrc  points to the input matrix
1496:Core/Inc/arm_math.h ****    * @param[out] pDst  points to the output matrix
1497:Core/Inc/arm_math.h ****    * @return    The function returns either  <code>ARM_MATH_SIZE_MISMATCH</code>
1498:Core/Inc/arm_math.h ****    * or <code>ARM_MATH_SUCCESS</code> based on the outcome of size checking.
1499:Core/Inc/arm_math.h ****    */
1500:Core/Inc/arm_math.h ****   arm_status arm_mat_trans_f32(
1501:Core/Inc/arm_math.h ****   const arm_matrix_instance_f32 * pSrc,
1502:Core/Inc/arm_math.h ****   arm_matrix_instance_f32 * pDst);
1503:Core/Inc/arm_math.h **** 
1504:Core/Inc/arm_math.h **** 
1505:Core/Inc/arm_math.h ****   /**
1506:Core/Inc/arm_math.h ****    * @brief Q15 matrix transpose.
1507:Core/Inc/arm_math.h ****    * @param[in]  pSrc  points to the input matrix
1508:Core/Inc/arm_math.h ****    * @param[out] pDst  points to the output matrix
1509:Core/Inc/arm_math.h ****    * @return    The function returns either  <code>ARM_MATH_SIZE_MISMATCH</code>
ARM GAS  /tmp/ccpEjOub.s 			page 31


1510:Core/Inc/arm_math.h ****    * or <code>ARM_MATH_SUCCESS</code> based on the outcome of size checking.
1511:Core/Inc/arm_math.h ****    */
1512:Core/Inc/arm_math.h ****   arm_status arm_mat_trans_q15(
1513:Core/Inc/arm_math.h ****   const arm_matrix_instance_q15 * pSrc,
1514:Core/Inc/arm_math.h ****   arm_matrix_instance_q15 * pDst);
1515:Core/Inc/arm_math.h **** 
1516:Core/Inc/arm_math.h **** 
1517:Core/Inc/arm_math.h ****   /**
1518:Core/Inc/arm_math.h ****    * @brief Q31 matrix transpose.
1519:Core/Inc/arm_math.h ****    * @param[in]  pSrc  points to the input matrix
1520:Core/Inc/arm_math.h ****    * @param[out] pDst  points to the output matrix
1521:Core/Inc/arm_math.h ****    * @return    The function returns either  <code>ARM_MATH_SIZE_MISMATCH</code>
1522:Core/Inc/arm_math.h ****    * or <code>ARM_MATH_SUCCESS</code> based on the outcome of size checking.
1523:Core/Inc/arm_math.h ****    */
1524:Core/Inc/arm_math.h ****   arm_status arm_mat_trans_q31(
1525:Core/Inc/arm_math.h ****   const arm_matrix_instance_q31 * pSrc,
1526:Core/Inc/arm_math.h ****   arm_matrix_instance_q31 * pDst);
1527:Core/Inc/arm_math.h **** 
1528:Core/Inc/arm_math.h **** 
1529:Core/Inc/arm_math.h ****   /**
1530:Core/Inc/arm_math.h ****    * @brief Floating-point matrix multiplication
1531:Core/Inc/arm_math.h ****    * @param[in]  pSrcA  points to the first input matrix structure
1532:Core/Inc/arm_math.h ****    * @param[in]  pSrcB  points to the second input matrix structure
1533:Core/Inc/arm_math.h ****    * @param[out] pDst   points to output matrix structure
1534:Core/Inc/arm_math.h ****    * @return     The function returns either
1535:Core/Inc/arm_math.h ****    * <code>ARM_MATH_SIZE_MISMATCH</code> or <code>ARM_MATH_SUCCESS</code> based on the outcome of s
1536:Core/Inc/arm_math.h ****    */
1537:Core/Inc/arm_math.h ****   arm_status arm_mat_mult_f32(
1538:Core/Inc/arm_math.h ****   const arm_matrix_instance_f32 * pSrcA,
1539:Core/Inc/arm_math.h ****   const arm_matrix_instance_f32 * pSrcB,
1540:Core/Inc/arm_math.h ****   arm_matrix_instance_f32 * pDst);
1541:Core/Inc/arm_math.h **** 
1542:Core/Inc/arm_math.h **** 
1543:Core/Inc/arm_math.h ****   /**
1544:Core/Inc/arm_math.h ****    * @brief Q15 matrix multiplication
1545:Core/Inc/arm_math.h ****    * @param[in]  pSrcA   points to the first input matrix structure
1546:Core/Inc/arm_math.h ****    * @param[in]  pSrcB   points to the second input matrix structure
1547:Core/Inc/arm_math.h ****    * @param[out] pDst    points to output matrix structure
1548:Core/Inc/arm_math.h ****    * @param[in]  pState  points to the array for storing intermediate results
1549:Core/Inc/arm_math.h ****    * @return     The function returns either
1550:Core/Inc/arm_math.h ****    * <code>ARM_MATH_SIZE_MISMATCH</code> or <code>ARM_MATH_SUCCESS</code> based on the outcome of s
1551:Core/Inc/arm_math.h ****    */
1552:Core/Inc/arm_math.h ****   arm_status arm_mat_mult_q15(
1553:Core/Inc/arm_math.h ****   const arm_matrix_instance_q15 * pSrcA,
1554:Core/Inc/arm_math.h ****   const arm_matrix_instance_q15 * pSrcB,
1555:Core/Inc/arm_math.h ****   arm_matrix_instance_q15 * pDst,
1556:Core/Inc/arm_math.h ****   q15_t * pState);
1557:Core/Inc/arm_math.h **** 
1558:Core/Inc/arm_math.h **** 
1559:Core/Inc/arm_math.h ****   /**
1560:Core/Inc/arm_math.h ****    * @brief Q15 matrix multiplication (fast variant) for Cortex-M3 and Cortex-M4
1561:Core/Inc/arm_math.h ****    * @param[in]  pSrcA   points to the first input matrix structure
1562:Core/Inc/arm_math.h ****    * @param[in]  pSrcB   points to the second input matrix structure
1563:Core/Inc/arm_math.h ****    * @param[out] pDst    points to output matrix structure
1564:Core/Inc/arm_math.h ****    * @param[in]  pState  points to the array for storing intermediate results
1565:Core/Inc/arm_math.h ****    * @return     The function returns either
1566:Core/Inc/arm_math.h ****    * <code>ARM_MATH_SIZE_MISMATCH</code> or <code>ARM_MATH_SUCCESS</code> based on the outcome of s
ARM GAS  /tmp/ccpEjOub.s 			page 32


1567:Core/Inc/arm_math.h ****    */
1568:Core/Inc/arm_math.h ****   arm_status arm_mat_mult_fast_q15(
1569:Core/Inc/arm_math.h ****   const arm_matrix_instance_q15 * pSrcA,
1570:Core/Inc/arm_math.h ****   const arm_matrix_instance_q15 * pSrcB,
1571:Core/Inc/arm_math.h ****   arm_matrix_instance_q15 * pDst,
1572:Core/Inc/arm_math.h ****   q15_t * pState);
1573:Core/Inc/arm_math.h **** 
1574:Core/Inc/arm_math.h **** 
1575:Core/Inc/arm_math.h ****   /**
1576:Core/Inc/arm_math.h ****    * @brief Q31 matrix multiplication
1577:Core/Inc/arm_math.h ****    * @param[in]  pSrcA  points to the first input matrix structure
1578:Core/Inc/arm_math.h ****    * @param[in]  pSrcB  points to the second input matrix structure
1579:Core/Inc/arm_math.h ****    * @param[out] pDst   points to output matrix structure
1580:Core/Inc/arm_math.h ****    * @return     The function returns either
1581:Core/Inc/arm_math.h ****    * <code>ARM_MATH_SIZE_MISMATCH</code> or <code>ARM_MATH_SUCCESS</code> based on the outcome of s
1582:Core/Inc/arm_math.h ****    */
1583:Core/Inc/arm_math.h ****   arm_status arm_mat_mult_q31(
1584:Core/Inc/arm_math.h ****   const arm_matrix_instance_q31 * pSrcA,
1585:Core/Inc/arm_math.h ****   const arm_matrix_instance_q31 * pSrcB,
1586:Core/Inc/arm_math.h ****   arm_matrix_instance_q31 * pDst);
1587:Core/Inc/arm_math.h **** 
1588:Core/Inc/arm_math.h **** 
1589:Core/Inc/arm_math.h ****   /**
1590:Core/Inc/arm_math.h ****    * @brief Q31 matrix multiplication (fast variant) for Cortex-M3 and Cortex-M4
1591:Core/Inc/arm_math.h ****    * @param[in]  pSrcA  points to the first input matrix structure
1592:Core/Inc/arm_math.h ****    * @param[in]  pSrcB  points to the second input matrix structure
1593:Core/Inc/arm_math.h ****    * @param[out] pDst   points to output matrix structure
1594:Core/Inc/arm_math.h ****    * @return     The function returns either
1595:Core/Inc/arm_math.h ****    * <code>ARM_MATH_SIZE_MISMATCH</code> or <code>ARM_MATH_SUCCESS</code> based on the outcome of s
1596:Core/Inc/arm_math.h ****    */
1597:Core/Inc/arm_math.h ****   arm_status arm_mat_mult_fast_q31(
1598:Core/Inc/arm_math.h ****   const arm_matrix_instance_q31 * pSrcA,
1599:Core/Inc/arm_math.h ****   const arm_matrix_instance_q31 * pSrcB,
1600:Core/Inc/arm_math.h ****   arm_matrix_instance_q31 * pDst);
1601:Core/Inc/arm_math.h **** 
1602:Core/Inc/arm_math.h **** 
1603:Core/Inc/arm_math.h ****   /**
1604:Core/Inc/arm_math.h ****    * @brief Floating-point matrix subtraction
1605:Core/Inc/arm_math.h ****    * @param[in]  pSrcA  points to the first input matrix structure
1606:Core/Inc/arm_math.h ****    * @param[in]  pSrcB  points to the second input matrix structure
1607:Core/Inc/arm_math.h ****    * @param[out] pDst   points to output matrix structure
1608:Core/Inc/arm_math.h ****    * @return     The function returns either
1609:Core/Inc/arm_math.h ****    * <code>ARM_MATH_SIZE_MISMATCH</code> or <code>ARM_MATH_SUCCESS</code> based on the outcome of s
1610:Core/Inc/arm_math.h ****    */
1611:Core/Inc/arm_math.h ****   arm_status arm_mat_sub_f32(
1612:Core/Inc/arm_math.h ****   const arm_matrix_instance_f32 * pSrcA,
1613:Core/Inc/arm_math.h ****   const arm_matrix_instance_f32 * pSrcB,
1614:Core/Inc/arm_math.h ****   arm_matrix_instance_f32 * pDst);
1615:Core/Inc/arm_math.h **** 
1616:Core/Inc/arm_math.h **** 
1617:Core/Inc/arm_math.h ****   /**
1618:Core/Inc/arm_math.h ****    * @brief Q15 matrix subtraction
1619:Core/Inc/arm_math.h ****    * @param[in]  pSrcA  points to the first input matrix structure
1620:Core/Inc/arm_math.h ****    * @param[in]  pSrcB  points to the second input matrix structure
1621:Core/Inc/arm_math.h ****    * @param[out] pDst   points to output matrix structure
1622:Core/Inc/arm_math.h ****    * @return     The function returns either
1623:Core/Inc/arm_math.h ****    * <code>ARM_MATH_SIZE_MISMATCH</code> or <code>ARM_MATH_SUCCESS</code> based on the outcome of s
ARM GAS  /tmp/ccpEjOub.s 			page 33


1624:Core/Inc/arm_math.h ****    */
1625:Core/Inc/arm_math.h ****   arm_status arm_mat_sub_q15(
1626:Core/Inc/arm_math.h ****   const arm_matrix_instance_q15 * pSrcA,
1627:Core/Inc/arm_math.h ****   const arm_matrix_instance_q15 * pSrcB,
1628:Core/Inc/arm_math.h ****   arm_matrix_instance_q15 * pDst);
1629:Core/Inc/arm_math.h **** 
1630:Core/Inc/arm_math.h **** 
1631:Core/Inc/arm_math.h ****   /**
1632:Core/Inc/arm_math.h ****    * @brief Q31 matrix subtraction
1633:Core/Inc/arm_math.h ****    * @param[in]  pSrcA  points to the first input matrix structure
1634:Core/Inc/arm_math.h ****    * @param[in]  pSrcB  points to the second input matrix structure
1635:Core/Inc/arm_math.h ****    * @param[out] pDst   points to output matrix structure
1636:Core/Inc/arm_math.h ****    * @return     The function returns either
1637:Core/Inc/arm_math.h ****    * <code>ARM_MATH_SIZE_MISMATCH</code> or <code>ARM_MATH_SUCCESS</code> based on the outcome of s
1638:Core/Inc/arm_math.h ****    */
1639:Core/Inc/arm_math.h ****   arm_status arm_mat_sub_q31(
1640:Core/Inc/arm_math.h ****   const arm_matrix_instance_q31 * pSrcA,
1641:Core/Inc/arm_math.h ****   const arm_matrix_instance_q31 * pSrcB,
1642:Core/Inc/arm_math.h ****   arm_matrix_instance_q31 * pDst);
1643:Core/Inc/arm_math.h **** 
1644:Core/Inc/arm_math.h **** 
1645:Core/Inc/arm_math.h ****   /**
1646:Core/Inc/arm_math.h ****    * @brief Floating-point matrix scaling.
1647:Core/Inc/arm_math.h ****    * @param[in]  pSrc   points to the input matrix
1648:Core/Inc/arm_math.h ****    * @param[in]  scale  scale factor
1649:Core/Inc/arm_math.h ****    * @param[out] pDst   points to the output matrix
1650:Core/Inc/arm_math.h ****    * @return     The function returns either
1651:Core/Inc/arm_math.h ****    * <code>ARM_MATH_SIZE_MISMATCH</code> or <code>ARM_MATH_SUCCESS</code> based on the outcome of s
1652:Core/Inc/arm_math.h ****    */
1653:Core/Inc/arm_math.h ****   arm_status arm_mat_scale_f32(
1654:Core/Inc/arm_math.h ****   const arm_matrix_instance_f32 * pSrc,
1655:Core/Inc/arm_math.h ****   float32_t scale,
1656:Core/Inc/arm_math.h ****   arm_matrix_instance_f32 * pDst);
1657:Core/Inc/arm_math.h **** 
1658:Core/Inc/arm_math.h **** 
1659:Core/Inc/arm_math.h ****   /**
1660:Core/Inc/arm_math.h ****    * @brief Q15 matrix scaling.
1661:Core/Inc/arm_math.h ****    * @param[in]  pSrc        points to input matrix
1662:Core/Inc/arm_math.h ****    * @param[in]  scaleFract  fractional portion of the scale factor
1663:Core/Inc/arm_math.h ****    * @param[in]  shift       number of bits to shift the result by
1664:Core/Inc/arm_math.h ****    * @param[out] pDst        points to output matrix
1665:Core/Inc/arm_math.h ****    * @return     The function returns either
1666:Core/Inc/arm_math.h ****    * <code>ARM_MATH_SIZE_MISMATCH</code> or <code>ARM_MATH_SUCCESS</code> based on the outcome of s
1667:Core/Inc/arm_math.h ****    */
1668:Core/Inc/arm_math.h ****   arm_status arm_mat_scale_q15(
1669:Core/Inc/arm_math.h ****   const arm_matrix_instance_q15 * pSrc,
1670:Core/Inc/arm_math.h ****   q15_t scaleFract,
1671:Core/Inc/arm_math.h ****   int32_t shift,
1672:Core/Inc/arm_math.h ****   arm_matrix_instance_q15 * pDst);
1673:Core/Inc/arm_math.h **** 
1674:Core/Inc/arm_math.h **** 
1675:Core/Inc/arm_math.h ****   /**
1676:Core/Inc/arm_math.h ****    * @brief Q31 matrix scaling.
1677:Core/Inc/arm_math.h ****    * @param[in]  pSrc        points to input matrix
1678:Core/Inc/arm_math.h ****    * @param[in]  scaleFract  fractional portion of the scale factor
1679:Core/Inc/arm_math.h ****    * @param[in]  shift       number of bits to shift the result by
1680:Core/Inc/arm_math.h ****    * @param[out] pDst        points to output matrix structure
ARM GAS  /tmp/ccpEjOub.s 			page 34


1681:Core/Inc/arm_math.h ****    * @return     The function returns either
1682:Core/Inc/arm_math.h ****    * <code>ARM_MATH_SIZE_MISMATCH</code> or <code>ARM_MATH_SUCCESS</code> based on the outcome of s
1683:Core/Inc/arm_math.h ****    */
1684:Core/Inc/arm_math.h ****   arm_status arm_mat_scale_q31(
1685:Core/Inc/arm_math.h ****   const arm_matrix_instance_q31 * pSrc,
1686:Core/Inc/arm_math.h ****   q31_t scaleFract,
1687:Core/Inc/arm_math.h ****   int32_t shift,
1688:Core/Inc/arm_math.h ****   arm_matrix_instance_q31 * pDst);
1689:Core/Inc/arm_math.h **** 
1690:Core/Inc/arm_math.h **** 
1691:Core/Inc/arm_math.h ****   /**
1692:Core/Inc/arm_math.h ****    * @brief  Q31 matrix initialization.
1693:Core/Inc/arm_math.h ****    * @param[in,out] S         points to an instance of the floating-point matrix structure.
1694:Core/Inc/arm_math.h ****    * @param[in]     nRows     number of rows in the matrix.
1695:Core/Inc/arm_math.h ****    * @param[in]     nColumns  number of columns in the matrix.
1696:Core/Inc/arm_math.h ****    * @param[in]     pData     points to the matrix data array.
1697:Core/Inc/arm_math.h ****    */
1698:Core/Inc/arm_math.h ****   void arm_mat_init_q31(
1699:Core/Inc/arm_math.h ****   arm_matrix_instance_q31 * S,
1700:Core/Inc/arm_math.h ****   uint16_t nRows,
1701:Core/Inc/arm_math.h ****   uint16_t nColumns,
1702:Core/Inc/arm_math.h ****   q31_t * pData);
1703:Core/Inc/arm_math.h **** 
1704:Core/Inc/arm_math.h **** 
1705:Core/Inc/arm_math.h ****   /**
1706:Core/Inc/arm_math.h ****    * @brief  Q15 matrix initialization.
1707:Core/Inc/arm_math.h ****    * @param[in,out] S         points to an instance of the floating-point matrix structure.
1708:Core/Inc/arm_math.h ****    * @param[in]     nRows     number of rows in the matrix.
1709:Core/Inc/arm_math.h ****    * @param[in]     nColumns  number of columns in the matrix.
1710:Core/Inc/arm_math.h ****    * @param[in]     pData     points to the matrix data array.
1711:Core/Inc/arm_math.h ****    */
1712:Core/Inc/arm_math.h ****   void arm_mat_init_q15(
1713:Core/Inc/arm_math.h ****   arm_matrix_instance_q15 * S,
1714:Core/Inc/arm_math.h ****   uint16_t nRows,
1715:Core/Inc/arm_math.h ****   uint16_t nColumns,
1716:Core/Inc/arm_math.h ****   q15_t * pData);
1717:Core/Inc/arm_math.h **** 
1718:Core/Inc/arm_math.h **** 
1719:Core/Inc/arm_math.h ****   /**
1720:Core/Inc/arm_math.h ****    * @brief  Floating-point matrix initialization.
1721:Core/Inc/arm_math.h ****    * @param[in,out] S         points to an instance of the floating-point matrix structure.
1722:Core/Inc/arm_math.h ****    * @param[in]     nRows     number of rows in the matrix.
1723:Core/Inc/arm_math.h ****    * @param[in]     nColumns  number of columns in the matrix.
1724:Core/Inc/arm_math.h ****    * @param[in]     pData     points to the matrix data array.
1725:Core/Inc/arm_math.h ****    */
1726:Core/Inc/arm_math.h ****   void arm_mat_init_f32(
1727:Core/Inc/arm_math.h ****   arm_matrix_instance_f32 * S,
1728:Core/Inc/arm_math.h ****   uint16_t nRows,
1729:Core/Inc/arm_math.h ****   uint16_t nColumns,
1730:Core/Inc/arm_math.h ****   float32_t * pData);
1731:Core/Inc/arm_math.h **** 
1732:Core/Inc/arm_math.h **** 
1733:Core/Inc/arm_math.h **** 
1734:Core/Inc/arm_math.h ****   /**
1735:Core/Inc/arm_math.h ****    * @brief Instance structure for the Q15 PID Control.
1736:Core/Inc/arm_math.h ****    */
1737:Core/Inc/arm_math.h ****   typedef struct
ARM GAS  /tmp/ccpEjOub.s 			page 35


1738:Core/Inc/arm_math.h ****   {
1739:Core/Inc/arm_math.h ****     q15_t A0;           /**< The derived gain, A0 = Kp + Ki + Kd . */
1740:Core/Inc/arm_math.h **** #ifdef ARM_MATH_CM0_FAMILY
1741:Core/Inc/arm_math.h ****     q15_t A1;
1742:Core/Inc/arm_math.h ****     q15_t A2;
1743:Core/Inc/arm_math.h **** #else
1744:Core/Inc/arm_math.h ****     q31_t A1;           /**< The derived gain A1 = -Kp - 2Kd | Kd.*/
1745:Core/Inc/arm_math.h **** #endif
1746:Core/Inc/arm_math.h ****     q15_t state[3];     /**< The state array of length 3. */
1747:Core/Inc/arm_math.h ****     q15_t Kp;           /**< The proportional gain. */
1748:Core/Inc/arm_math.h ****     q15_t Ki;           /**< The integral gain. */
1749:Core/Inc/arm_math.h ****     q15_t Kd;           /**< The derivative gain. */
1750:Core/Inc/arm_math.h ****   } arm_pid_instance_q15;
1751:Core/Inc/arm_math.h **** 
1752:Core/Inc/arm_math.h ****   /**
1753:Core/Inc/arm_math.h ****    * @brief Instance structure for the Q31 PID Control.
1754:Core/Inc/arm_math.h ****    */
1755:Core/Inc/arm_math.h ****   typedef struct
1756:Core/Inc/arm_math.h ****   {
1757:Core/Inc/arm_math.h ****     q31_t A0;            /**< The derived gain, A0 = Kp + Ki + Kd . */
1758:Core/Inc/arm_math.h ****     q31_t A1;            /**< The derived gain, A1 = -Kp - 2Kd. */
1759:Core/Inc/arm_math.h ****     q31_t A2;            /**< The derived gain, A2 = Kd . */
1760:Core/Inc/arm_math.h ****     q31_t state[3];      /**< The state array of length 3. */
1761:Core/Inc/arm_math.h ****     q31_t Kp;            /**< The proportional gain. */
1762:Core/Inc/arm_math.h ****     q31_t Ki;            /**< The integral gain. */
1763:Core/Inc/arm_math.h ****     q31_t Kd;            /**< The derivative gain. */
1764:Core/Inc/arm_math.h ****   } arm_pid_instance_q31;
1765:Core/Inc/arm_math.h **** 
1766:Core/Inc/arm_math.h ****   /**
1767:Core/Inc/arm_math.h ****    * @brief Instance structure for the floating-point PID Control.
1768:Core/Inc/arm_math.h ****    */
1769:Core/Inc/arm_math.h ****   typedef struct
1770:Core/Inc/arm_math.h ****   {
1771:Core/Inc/arm_math.h ****     float32_t A0;          /**< The derived gain, A0 = Kp + Ki + Kd . */
1772:Core/Inc/arm_math.h ****     float32_t A1;          /**< The derived gain, A1 = -Kp - 2Kd. */
1773:Core/Inc/arm_math.h ****     float32_t A2;          /**< The derived gain, A2 = Kd . */
1774:Core/Inc/arm_math.h ****     float32_t state[3];    /**< The state array of length 3. */
1775:Core/Inc/arm_math.h ****     float32_t Kp;          /**< The proportional gain. */
1776:Core/Inc/arm_math.h ****     float32_t Ki;          /**< The integral gain. */
1777:Core/Inc/arm_math.h ****     float32_t Kd;          /**< The derivative gain. */
1778:Core/Inc/arm_math.h ****   } arm_pid_instance_f32;
1779:Core/Inc/arm_math.h **** 
1780:Core/Inc/arm_math.h **** 
1781:Core/Inc/arm_math.h **** 
1782:Core/Inc/arm_math.h ****   /**
1783:Core/Inc/arm_math.h ****    * @brief  Initialization function for the floating-point PID Control.
1784:Core/Inc/arm_math.h ****    * @param[in,out] S               points to an instance of the PID structure.
1785:Core/Inc/arm_math.h ****    * @param[in]     resetStateFlag  flag to reset the state. 0 = no change in state 1 = reset the s
1786:Core/Inc/arm_math.h ****    */
1787:Core/Inc/arm_math.h ****   void arm_pid_init_f32(
1788:Core/Inc/arm_math.h ****   arm_pid_instance_f32 * S,
1789:Core/Inc/arm_math.h ****   int32_t resetStateFlag);
1790:Core/Inc/arm_math.h **** 
1791:Core/Inc/arm_math.h **** 
1792:Core/Inc/arm_math.h ****   /**
1793:Core/Inc/arm_math.h ****    * @brief  Reset function for the floating-point PID Control.
1794:Core/Inc/arm_math.h ****    * @param[in,out] S  is an instance of the floating-point PID Control structure
ARM GAS  /tmp/ccpEjOub.s 			page 36


1795:Core/Inc/arm_math.h ****    */
1796:Core/Inc/arm_math.h ****   void arm_pid_reset_f32(
1797:Core/Inc/arm_math.h ****   arm_pid_instance_f32 * S);
1798:Core/Inc/arm_math.h **** 
1799:Core/Inc/arm_math.h **** 
1800:Core/Inc/arm_math.h ****   /**
1801:Core/Inc/arm_math.h ****    * @brief  Initialization function for the Q31 PID Control.
1802:Core/Inc/arm_math.h ****    * @param[in,out] S               points to an instance of the Q15 PID structure.
1803:Core/Inc/arm_math.h ****    * @param[in]     resetStateFlag  flag to reset the state. 0 = no change in state 1 = reset the s
1804:Core/Inc/arm_math.h ****    */
1805:Core/Inc/arm_math.h ****   void arm_pid_init_q31(
1806:Core/Inc/arm_math.h ****   arm_pid_instance_q31 * S,
1807:Core/Inc/arm_math.h ****   int32_t resetStateFlag);
1808:Core/Inc/arm_math.h **** 
1809:Core/Inc/arm_math.h **** 
1810:Core/Inc/arm_math.h ****   /**
1811:Core/Inc/arm_math.h ****    * @brief  Reset function for the Q31 PID Control.
1812:Core/Inc/arm_math.h ****    * @param[in,out] S   points to an instance of the Q31 PID Control structure
1813:Core/Inc/arm_math.h ****    */
1814:Core/Inc/arm_math.h **** 
1815:Core/Inc/arm_math.h ****   void arm_pid_reset_q31(
1816:Core/Inc/arm_math.h ****   arm_pid_instance_q31 * S);
1817:Core/Inc/arm_math.h **** 
1818:Core/Inc/arm_math.h **** 
1819:Core/Inc/arm_math.h ****   /**
1820:Core/Inc/arm_math.h ****    * @brief  Initialization function for the Q15 PID Control.
1821:Core/Inc/arm_math.h ****    * @param[in,out] S               points to an instance of the Q15 PID structure.
1822:Core/Inc/arm_math.h ****    * @param[in]     resetStateFlag  flag to reset the state. 0 = no change in state 1 = reset the s
1823:Core/Inc/arm_math.h ****    */
1824:Core/Inc/arm_math.h ****   void arm_pid_init_q15(
1825:Core/Inc/arm_math.h ****   arm_pid_instance_q15 * S,
1826:Core/Inc/arm_math.h ****   int32_t resetStateFlag);
1827:Core/Inc/arm_math.h **** 
1828:Core/Inc/arm_math.h **** 
1829:Core/Inc/arm_math.h ****   /**
1830:Core/Inc/arm_math.h ****    * @brief  Reset function for the Q15 PID Control.
1831:Core/Inc/arm_math.h ****    * @param[in,out] S  points to an instance of the q15 PID Control structure
1832:Core/Inc/arm_math.h ****    */
1833:Core/Inc/arm_math.h ****   void arm_pid_reset_q15(
1834:Core/Inc/arm_math.h ****   arm_pid_instance_q15 * S);
1835:Core/Inc/arm_math.h **** 
1836:Core/Inc/arm_math.h **** 
1837:Core/Inc/arm_math.h ****   /**
1838:Core/Inc/arm_math.h ****    * @brief Instance structure for the floating-point Linear Interpolate function.
1839:Core/Inc/arm_math.h ****    */
1840:Core/Inc/arm_math.h ****   typedef struct
1841:Core/Inc/arm_math.h ****   {
1842:Core/Inc/arm_math.h ****     uint32_t nValues;           /**< nValues */
1843:Core/Inc/arm_math.h ****     float32_t x1;               /**< x1 */
1844:Core/Inc/arm_math.h ****     float32_t xSpacing;         /**< xSpacing */
1845:Core/Inc/arm_math.h ****     float32_t *pYData;          /**< pointer to the table of Y values */
1846:Core/Inc/arm_math.h ****   } arm_linear_interp_instance_f32;
1847:Core/Inc/arm_math.h **** 
1848:Core/Inc/arm_math.h ****   /**
1849:Core/Inc/arm_math.h ****    * @brief Instance structure for the floating-point bilinear interpolation function.
1850:Core/Inc/arm_math.h ****    */
1851:Core/Inc/arm_math.h ****   typedef struct
ARM GAS  /tmp/ccpEjOub.s 			page 37


1852:Core/Inc/arm_math.h ****   {
1853:Core/Inc/arm_math.h ****     uint16_t numRows;   /**< number of rows in the data table. */
1854:Core/Inc/arm_math.h ****     uint16_t numCols;   /**< number of columns in the data table. */
1855:Core/Inc/arm_math.h ****     float32_t *pData;   /**< points to the data table. */
1856:Core/Inc/arm_math.h ****   } arm_bilinear_interp_instance_f32;
1857:Core/Inc/arm_math.h **** 
1858:Core/Inc/arm_math.h ****    /**
1859:Core/Inc/arm_math.h ****    * @brief Instance structure for the Q31 bilinear interpolation function.
1860:Core/Inc/arm_math.h ****    */
1861:Core/Inc/arm_math.h ****   typedef struct
1862:Core/Inc/arm_math.h ****   {
1863:Core/Inc/arm_math.h ****     uint16_t numRows;   /**< number of rows in the data table. */
1864:Core/Inc/arm_math.h ****     uint16_t numCols;   /**< number of columns in the data table. */
1865:Core/Inc/arm_math.h ****     q31_t *pData;       /**< points to the data table. */
1866:Core/Inc/arm_math.h ****   } arm_bilinear_interp_instance_q31;
1867:Core/Inc/arm_math.h **** 
1868:Core/Inc/arm_math.h ****    /**
1869:Core/Inc/arm_math.h ****    * @brief Instance structure for the Q15 bilinear interpolation function.
1870:Core/Inc/arm_math.h ****    */
1871:Core/Inc/arm_math.h ****   typedef struct
1872:Core/Inc/arm_math.h ****   {
1873:Core/Inc/arm_math.h ****     uint16_t numRows;   /**< number of rows in the data table. */
1874:Core/Inc/arm_math.h ****     uint16_t numCols;   /**< number of columns in the data table. */
1875:Core/Inc/arm_math.h ****     q15_t *pData;       /**< points to the data table. */
1876:Core/Inc/arm_math.h ****   } arm_bilinear_interp_instance_q15;
1877:Core/Inc/arm_math.h **** 
1878:Core/Inc/arm_math.h ****    /**
1879:Core/Inc/arm_math.h ****    * @brief Instance structure for the Q15 bilinear interpolation function.
1880:Core/Inc/arm_math.h ****    */
1881:Core/Inc/arm_math.h ****   typedef struct
1882:Core/Inc/arm_math.h ****   {
1883:Core/Inc/arm_math.h ****     uint16_t numRows;   /**< number of rows in the data table. */
1884:Core/Inc/arm_math.h ****     uint16_t numCols;   /**< number of columns in the data table. */
1885:Core/Inc/arm_math.h ****     q7_t *pData;        /**< points to the data table. */
1886:Core/Inc/arm_math.h ****   } arm_bilinear_interp_instance_q7;
1887:Core/Inc/arm_math.h **** 
1888:Core/Inc/arm_math.h **** 
1889:Core/Inc/arm_math.h ****   /**
1890:Core/Inc/arm_math.h ****    * @brief Q7 vector multiplication.
1891:Core/Inc/arm_math.h ****    * @param[in]  pSrcA      points to the first input vector
1892:Core/Inc/arm_math.h ****    * @param[in]  pSrcB      points to the second input vector
1893:Core/Inc/arm_math.h ****    * @param[out] pDst       points to the output vector
1894:Core/Inc/arm_math.h ****    * @param[in]  blockSize  number of samples in each vector
1895:Core/Inc/arm_math.h ****    */
1896:Core/Inc/arm_math.h ****   void arm_mult_q7(
1897:Core/Inc/arm_math.h ****   q7_t * pSrcA,
1898:Core/Inc/arm_math.h ****   q7_t * pSrcB,
1899:Core/Inc/arm_math.h ****   q7_t * pDst,
1900:Core/Inc/arm_math.h ****   uint32_t blockSize);
1901:Core/Inc/arm_math.h **** 
1902:Core/Inc/arm_math.h **** 
1903:Core/Inc/arm_math.h ****   /**
1904:Core/Inc/arm_math.h ****    * @brief Q15 vector multiplication.
1905:Core/Inc/arm_math.h ****    * @param[in]  pSrcA      points to the first input vector
1906:Core/Inc/arm_math.h ****    * @param[in]  pSrcB      points to the second input vector
1907:Core/Inc/arm_math.h ****    * @param[out] pDst       points to the output vector
1908:Core/Inc/arm_math.h ****    * @param[in]  blockSize  number of samples in each vector
ARM GAS  /tmp/ccpEjOub.s 			page 38


1909:Core/Inc/arm_math.h ****    */
1910:Core/Inc/arm_math.h ****   void arm_mult_q15(
1911:Core/Inc/arm_math.h ****   q15_t * pSrcA,
1912:Core/Inc/arm_math.h ****   q15_t * pSrcB,
1913:Core/Inc/arm_math.h ****   q15_t * pDst,
1914:Core/Inc/arm_math.h ****   uint32_t blockSize);
1915:Core/Inc/arm_math.h **** 
1916:Core/Inc/arm_math.h **** 
1917:Core/Inc/arm_math.h ****   /**
1918:Core/Inc/arm_math.h ****    * @brief Q31 vector multiplication.
1919:Core/Inc/arm_math.h ****    * @param[in]  pSrcA      points to the first input vector
1920:Core/Inc/arm_math.h ****    * @param[in]  pSrcB      points to the second input vector
1921:Core/Inc/arm_math.h ****    * @param[out] pDst       points to the output vector
1922:Core/Inc/arm_math.h ****    * @param[in]  blockSize  number of samples in each vector
1923:Core/Inc/arm_math.h ****    */
1924:Core/Inc/arm_math.h ****   void arm_mult_q31(
1925:Core/Inc/arm_math.h ****   q31_t * pSrcA,
1926:Core/Inc/arm_math.h ****   q31_t * pSrcB,
1927:Core/Inc/arm_math.h ****   q31_t * pDst,
1928:Core/Inc/arm_math.h ****   uint32_t blockSize);
1929:Core/Inc/arm_math.h **** 
1930:Core/Inc/arm_math.h **** 
1931:Core/Inc/arm_math.h ****   /**
1932:Core/Inc/arm_math.h ****    * @brief Floating-point vector multiplication.
1933:Core/Inc/arm_math.h ****    * @param[in]  pSrcA      points to the first input vector
1934:Core/Inc/arm_math.h ****    * @param[in]  pSrcB      points to the second input vector
1935:Core/Inc/arm_math.h ****    * @param[out] pDst       points to the output vector
1936:Core/Inc/arm_math.h ****    * @param[in]  blockSize  number of samples in each vector
1937:Core/Inc/arm_math.h ****    */
1938:Core/Inc/arm_math.h ****   void arm_mult_f32(
1939:Core/Inc/arm_math.h ****   float32_t * pSrcA,
1940:Core/Inc/arm_math.h ****   float32_t * pSrcB,
1941:Core/Inc/arm_math.h ****   float32_t * pDst,
1942:Core/Inc/arm_math.h ****   uint32_t blockSize);
1943:Core/Inc/arm_math.h **** 
1944:Core/Inc/arm_math.h **** 
1945:Core/Inc/arm_math.h ****   /**
1946:Core/Inc/arm_math.h ****    * @brief Instance structure for the Q15 CFFT/CIFFT function.
1947:Core/Inc/arm_math.h ****    */
1948:Core/Inc/arm_math.h ****   typedef struct
1949:Core/Inc/arm_math.h ****   {
1950:Core/Inc/arm_math.h ****     uint16_t fftLen;                 /**< length of the FFT. */
1951:Core/Inc/arm_math.h ****     uint8_t ifftFlag;                /**< flag that selects forward (ifftFlag=0) or inverse (ifftFl
1952:Core/Inc/arm_math.h ****     uint8_t bitReverseFlag;          /**< flag that enables (bitReverseFlag=1) or disables (bitReve
1953:Core/Inc/arm_math.h ****     q15_t *pTwiddle;                 /**< points to the Sin twiddle factor table. */
1954:Core/Inc/arm_math.h ****     uint16_t *pBitRevTable;          /**< points to the bit reversal table. */
1955:Core/Inc/arm_math.h ****     uint16_t twidCoefModifier;       /**< twiddle coefficient modifier that supports different size
1956:Core/Inc/arm_math.h ****     uint16_t bitRevFactor;           /**< bit reversal modifier that supports different size FFTs w
1957:Core/Inc/arm_math.h ****   } arm_cfft_radix2_instance_q15;
1958:Core/Inc/arm_math.h **** 
1959:Core/Inc/arm_math.h **** /* Deprecated */
1960:Core/Inc/arm_math.h ****   arm_status arm_cfft_radix2_init_q15(
1961:Core/Inc/arm_math.h ****   arm_cfft_radix2_instance_q15 * S,
1962:Core/Inc/arm_math.h ****   uint16_t fftLen,
1963:Core/Inc/arm_math.h ****   uint8_t ifftFlag,
1964:Core/Inc/arm_math.h ****   uint8_t bitReverseFlag);
1965:Core/Inc/arm_math.h **** 
ARM GAS  /tmp/ccpEjOub.s 			page 39


1966:Core/Inc/arm_math.h **** /* Deprecated */
1967:Core/Inc/arm_math.h ****   void arm_cfft_radix2_q15(
1968:Core/Inc/arm_math.h ****   const arm_cfft_radix2_instance_q15 * S,
1969:Core/Inc/arm_math.h ****   q15_t * pSrc);
1970:Core/Inc/arm_math.h **** 
1971:Core/Inc/arm_math.h **** 
1972:Core/Inc/arm_math.h ****   /**
1973:Core/Inc/arm_math.h ****    * @brief Instance structure for the Q15 CFFT/CIFFT function.
1974:Core/Inc/arm_math.h ****    */
1975:Core/Inc/arm_math.h ****   typedef struct
1976:Core/Inc/arm_math.h ****   {
1977:Core/Inc/arm_math.h ****     uint16_t fftLen;                 /**< length of the FFT. */
1978:Core/Inc/arm_math.h ****     uint8_t ifftFlag;                /**< flag that selects forward (ifftFlag=0) or inverse (ifftFl
1979:Core/Inc/arm_math.h ****     uint8_t bitReverseFlag;          /**< flag that enables (bitReverseFlag=1) or disables (bitReve
1980:Core/Inc/arm_math.h ****     q15_t *pTwiddle;                 /**< points to the twiddle factor table. */
1981:Core/Inc/arm_math.h ****     uint16_t *pBitRevTable;          /**< points to the bit reversal table. */
1982:Core/Inc/arm_math.h ****     uint16_t twidCoefModifier;       /**< twiddle coefficient modifier that supports different size
1983:Core/Inc/arm_math.h ****     uint16_t bitRevFactor;           /**< bit reversal modifier that supports different size FFTs w
1984:Core/Inc/arm_math.h ****   } arm_cfft_radix4_instance_q15;
1985:Core/Inc/arm_math.h **** 
1986:Core/Inc/arm_math.h **** /* Deprecated */
1987:Core/Inc/arm_math.h ****   arm_status arm_cfft_radix4_init_q15(
1988:Core/Inc/arm_math.h ****   arm_cfft_radix4_instance_q15 * S,
1989:Core/Inc/arm_math.h ****   uint16_t fftLen,
1990:Core/Inc/arm_math.h ****   uint8_t ifftFlag,
1991:Core/Inc/arm_math.h ****   uint8_t bitReverseFlag);
1992:Core/Inc/arm_math.h **** 
1993:Core/Inc/arm_math.h **** /* Deprecated */
1994:Core/Inc/arm_math.h ****   void arm_cfft_radix4_q15(
1995:Core/Inc/arm_math.h ****   const arm_cfft_radix4_instance_q15 * S,
1996:Core/Inc/arm_math.h ****   q15_t * pSrc);
1997:Core/Inc/arm_math.h **** 
1998:Core/Inc/arm_math.h ****   /**
1999:Core/Inc/arm_math.h ****    * @brief Instance structure for the Radix-2 Q31 CFFT/CIFFT function.
2000:Core/Inc/arm_math.h ****    */
2001:Core/Inc/arm_math.h ****   typedef struct
2002:Core/Inc/arm_math.h ****   {
2003:Core/Inc/arm_math.h ****     uint16_t fftLen;                 /**< length of the FFT. */
2004:Core/Inc/arm_math.h ****     uint8_t ifftFlag;                /**< flag that selects forward (ifftFlag=0) or inverse (ifftFl
2005:Core/Inc/arm_math.h ****     uint8_t bitReverseFlag;          /**< flag that enables (bitReverseFlag=1) or disables (bitReve
2006:Core/Inc/arm_math.h ****     q31_t *pTwiddle;                 /**< points to the Twiddle factor table. */
2007:Core/Inc/arm_math.h ****     uint16_t *pBitRevTable;          /**< points to the bit reversal table. */
2008:Core/Inc/arm_math.h ****     uint16_t twidCoefModifier;       /**< twiddle coefficient modifier that supports different size
2009:Core/Inc/arm_math.h ****     uint16_t bitRevFactor;           /**< bit reversal modifier that supports different size FFTs w
2010:Core/Inc/arm_math.h ****   } arm_cfft_radix2_instance_q31;
2011:Core/Inc/arm_math.h **** 
2012:Core/Inc/arm_math.h **** /* Deprecated */
2013:Core/Inc/arm_math.h ****   arm_status arm_cfft_radix2_init_q31(
2014:Core/Inc/arm_math.h ****   arm_cfft_radix2_instance_q31 * S,
2015:Core/Inc/arm_math.h ****   uint16_t fftLen,
2016:Core/Inc/arm_math.h ****   uint8_t ifftFlag,
2017:Core/Inc/arm_math.h ****   uint8_t bitReverseFlag);
2018:Core/Inc/arm_math.h **** 
2019:Core/Inc/arm_math.h **** /* Deprecated */
2020:Core/Inc/arm_math.h ****   void arm_cfft_radix2_q31(
2021:Core/Inc/arm_math.h ****   const arm_cfft_radix2_instance_q31 * S,
2022:Core/Inc/arm_math.h ****   q31_t * pSrc);
ARM GAS  /tmp/ccpEjOub.s 			page 40


2023:Core/Inc/arm_math.h **** 
2024:Core/Inc/arm_math.h ****   /**
2025:Core/Inc/arm_math.h ****    * @brief Instance structure for the Q31 CFFT/CIFFT function.
2026:Core/Inc/arm_math.h ****    */
2027:Core/Inc/arm_math.h ****   typedef struct
2028:Core/Inc/arm_math.h ****   {
2029:Core/Inc/arm_math.h ****     uint16_t fftLen;                 /**< length of the FFT. */
2030:Core/Inc/arm_math.h ****     uint8_t ifftFlag;                /**< flag that selects forward (ifftFlag=0) or inverse (ifftFl
2031:Core/Inc/arm_math.h ****     uint8_t bitReverseFlag;          /**< flag that enables (bitReverseFlag=1) or disables (bitReve
2032:Core/Inc/arm_math.h ****     q31_t *pTwiddle;                 /**< points to the twiddle factor table. */
2033:Core/Inc/arm_math.h ****     uint16_t *pBitRevTable;          /**< points to the bit reversal table. */
2034:Core/Inc/arm_math.h ****     uint16_t twidCoefModifier;       /**< twiddle coefficient modifier that supports different size
2035:Core/Inc/arm_math.h ****     uint16_t bitRevFactor;           /**< bit reversal modifier that supports different size FFTs w
2036:Core/Inc/arm_math.h ****   } arm_cfft_radix4_instance_q31;
2037:Core/Inc/arm_math.h **** 
2038:Core/Inc/arm_math.h **** /* Deprecated */
2039:Core/Inc/arm_math.h ****   void arm_cfft_radix4_q31(
2040:Core/Inc/arm_math.h ****   const arm_cfft_radix4_instance_q31 * S,
2041:Core/Inc/arm_math.h ****   q31_t * pSrc);
2042:Core/Inc/arm_math.h **** 
2043:Core/Inc/arm_math.h **** /* Deprecated */
2044:Core/Inc/arm_math.h ****   arm_status arm_cfft_radix4_init_q31(
2045:Core/Inc/arm_math.h ****   arm_cfft_radix4_instance_q31 * S,
2046:Core/Inc/arm_math.h ****   uint16_t fftLen,
2047:Core/Inc/arm_math.h ****   uint8_t ifftFlag,
2048:Core/Inc/arm_math.h ****   uint8_t bitReverseFlag);
2049:Core/Inc/arm_math.h **** 
2050:Core/Inc/arm_math.h ****   /**
2051:Core/Inc/arm_math.h ****    * @brief Instance structure for the floating-point CFFT/CIFFT function.
2052:Core/Inc/arm_math.h ****    */
2053:Core/Inc/arm_math.h ****   typedef struct
2054:Core/Inc/arm_math.h ****   {
2055:Core/Inc/arm_math.h ****     uint16_t fftLen;                   /**< length of the FFT. */
2056:Core/Inc/arm_math.h ****     uint8_t ifftFlag;                  /**< flag that selects forward (ifftFlag=0) or inverse (ifft
2057:Core/Inc/arm_math.h ****     uint8_t bitReverseFlag;            /**< flag that enables (bitReverseFlag=1) or disables (bitRe
2058:Core/Inc/arm_math.h ****     float32_t *pTwiddle;               /**< points to the Twiddle factor table. */
2059:Core/Inc/arm_math.h ****     uint16_t *pBitRevTable;            /**< points to the bit reversal table. */
2060:Core/Inc/arm_math.h ****     uint16_t twidCoefModifier;         /**< twiddle coefficient modifier that supports different si
2061:Core/Inc/arm_math.h ****     uint16_t bitRevFactor;             /**< bit reversal modifier that supports different size FFTs
2062:Core/Inc/arm_math.h ****     float32_t onebyfftLen;             /**< value of 1/fftLen. */
2063:Core/Inc/arm_math.h ****   } arm_cfft_radix2_instance_f32;
2064:Core/Inc/arm_math.h **** 
2065:Core/Inc/arm_math.h **** /* Deprecated */
2066:Core/Inc/arm_math.h ****   arm_status arm_cfft_radix2_init_f32(
2067:Core/Inc/arm_math.h ****   arm_cfft_radix2_instance_f32 * S,
2068:Core/Inc/arm_math.h ****   uint16_t fftLen,
2069:Core/Inc/arm_math.h ****   uint8_t ifftFlag,
2070:Core/Inc/arm_math.h ****   uint8_t bitReverseFlag);
2071:Core/Inc/arm_math.h **** 
2072:Core/Inc/arm_math.h **** /* Deprecated */
2073:Core/Inc/arm_math.h ****   void arm_cfft_radix2_f32(
2074:Core/Inc/arm_math.h ****   const arm_cfft_radix2_instance_f32 * S,
2075:Core/Inc/arm_math.h ****   float32_t * pSrc);
2076:Core/Inc/arm_math.h **** 
2077:Core/Inc/arm_math.h ****   /**
2078:Core/Inc/arm_math.h ****    * @brief Instance structure for the floating-point CFFT/CIFFT function.
2079:Core/Inc/arm_math.h ****    */
ARM GAS  /tmp/ccpEjOub.s 			page 41


2080:Core/Inc/arm_math.h ****   typedef struct
2081:Core/Inc/arm_math.h ****   {
2082:Core/Inc/arm_math.h ****     uint16_t fftLen;                   /**< length of the FFT. */
2083:Core/Inc/arm_math.h ****     uint8_t ifftFlag;                  /**< flag that selects forward (ifftFlag=0) or inverse (ifft
2084:Core/Inc/arm_math.h ****     uint8_t bitReverseFlag;            /**< flag that enables (bitReverseFlag=1) or disables (bitRe
2085:Core/Inc/arm_math.h ****     float32_t *pTwiddle;               /**< points to the Twiddle factor table. */
2086:Core/Inc/arm_math.h ****     uint16_t *pBitRevTable;            /**< points to the bit reversal table. */
2087:Core/Inc/arm_math.h ****     uint16_t twidCoefModifier;         /**< twiddle coefficient modifier that supports different si
2088:Core/Inc/arm_math.h ****     uint16_t bitRevFactor;             /**< bit reversal modifier that supports different size FFTs
2089:Core/Inc/arm_math.h ****     float32_t onebyfftLen;             /**< value of 1/fftLen. */
2090:Core/Inc/arm_math.h ****   } arm_cfft_radix4_instance_f32;
2091:Core/Inc/arm_math.h **** 
2092:Core/Inc/arm_math.h **** /* Deprecated */
2093:Core/Inc/arm_math.h ****   arm_status arm_cfft_radix4_init_f32(
2094:Core/Inc/arm_math.h ****   arm_cfft_radix4_instance_f32 * S,
2095:Core/Inc/arm_math.h ****   uint16_t fftLen,
2096:Core/Inc/arm_math.h ****   uint8_t ifftFlag,
2097:Core/Inc/arm_math.h ****   uint8_t bitReverseFlag);
2098:Core/Inc/arm_math.h **** 
2099:Core/Inc/arm_math.h **** /* Deprecated */
2100:Core/Inc/arm_math.h ****   void arm_cfft_radix4_f32(
2101:Core/Inc/arm_math.h ****   const arm_cfft_radix4_instance_f32 * S,
2102:Core/Inc/arm_math.h ****   float32_t * pSrc);
2103:Core/Inc/arm_math.h **** 
2104:Core/Inc/arm_math.h ****   /**
2105:Core/Inc/arm_math.h ****    * @brief Instance structure for the fixed-point CFFT/CIFFT function.
2106:Core/Inc/arm_math.h ****    */
2107:Core/Inc/arm_math.h ****   typedef struct
2108:Core/Inc/arm_math.h ****   {
2109:Core/Inc/arm_math.h ****     uint16_t fftLen;                   /**< length of the FFT. */
2110:Core/Inc/arm_math.h ****     const q15_t *pTwiddle;             /**< points to the Twiddle factor table. */
2111:Core/Inc/arm_math.h ****     const uint16_t *pBitRevTable;      /**< points to the bit reversal table. */
2112:Core/Inc/arm_math.h ****     uint16_t bitRevLength;             /**< bit reversal table length. */
2113:Core/Inc/arm_math.h ****   } arm_cfft_instance_q15;
2114:Core/Inc/arm_math.h **** 
2115:Core/Inc/arm_math.h **** void arm_cfft_q15(
2116:Core/Inc/arm_math.h ****     const arm_cfft_instance_q15 * S,
2117:Core/Inc/arm_math.h ****     q15_t * p1,
2118:Core/Inc/arm_math.h ****     uint8_t ifftFlag,
2119:Core/Inc/arm_math.h ****     uint8_t bitReverseFlag);
2120:Core/Inc/arm_math.h **** 
2121:Core/Inc/arm_math.h ****   /**
2122:Core/Inc/arm_math.h ****    * @brief Instance structure for the fixed-point CFFT/CIFFT function.
2123:Core/Inc/arm_math.h ****    */
2124:Core/Inc/arm_math.h ****   typedef struct
2125:Core/Inc/arm_math.h ****   {
2126:Core/Inc/arm_math.h ****     uint16_t fftLen;                   /**< length of the FFT. */
2127:Core/Inc/arm_math.h ****     const q31_t *pTwiddle;             /**< points to the Twiddle factor table. */
2128:Core/Inc/arm_math.h ****     const uint16_t *pBitRevTable;      /**< points to the bit reversal table. */
2129:Core/Inc/arm_math.h ****     uint16_t bitRevLength;             /**< bit reversal table length. */
2130:Core/Inc/arm_math.h ****   } arm_cfft_instance_q31;
2131:Core/Inc/arm_math.h **** 
2132:Core/Inc/arm_math.h **** void arm_cfft_q31(
2133:Core/Inc/arm_math.h ****     const arm_cfft_instance_q31 * S,
2134:Core/Inc/arm_math.h ****     q31_t * p1,
2135:Core/Inc/arm_math.h ****     uint8_t ifftFlag,
2136:Core/Inc/arm_math.h ****     uint8_t bitReverseFlag);
ARM GAS  /tmp/ccpEjOub.s 			page 42


2137:Core/Inc/arm_math.h **** 
2138:Core/Inc/arm_math.h ****   /**
2139:Core/Inc/arm_math.h ****    * @brief Instance structure for the floating-point CFFT/CIFFT function.
2140:Core/Inc/arm_math.h ****    */
2141:Core/Inc/arm_math.h ****   typedef struct
2142:Core/Inc/arm_math.h ****   {
2143:Core/Inc/arm_math.h ****     uint16_t fftLen;                   /**< length of the FFT. */
2144:Core/Inc/arm_math.h ****     const float32_t *pTwiddle;         /**< points to the Twiddle factor table. */
2145:Core/Inc/arm_math.h ****     const uint16_t *pBitRevTable;      /**< points to the bit reversal table. */
2146:Core/Inc/arm_math.h ****     uint16_t bitRevLength;             /**< bit reversal table length. */
2147:Core/Inc/arm_math.h ****   } arm_cfft_instance_f32;
2148:Core/Inc/arm_math.h **** 
2149:Core/Inc/arm_math.h ****   void arm_cfft_f32(
2150:Core/Inc/arm_math.h ****   const arm_cfft_instance_f32 * S,
2151:Core/Inc/arm_math.h ****   float32_t * p1,
2152:Core/Inc/arm_math.h ****   uint8_t ifftFlag,
2153:Core/Inc/arm_math.h ****   uint8_t bitReverseFlag);
2154:Core/Inc/arm_math.h **** 
2155:Core/Inc/arm_math.h ****   /**
2156:Core/Inc/arm_math.h ****    * @brief Instance structure for the Q15 RFFT/RIFFT function.
2157:Core/Inc/arm_math.h ****    */
2158:Core/Inc/arm_math.h ****   typedef struct
2159:Core/Inc/arm_math.h ****   {
2160:Core/Inc/arm_math.h ****     uint32_t fftLenReal;                      /**< length of the real FFT. */
2161:Core/Inc/arm_math.h ****     uint8_t ifftFlagR;                        /**< flag that selects forward (ifftFlagR=0) or inver
2162:Core/Inc/arm_math.h ****     uint8_t bitReverseFlagR;                  /**< flag that enables (bitReverseFlagR=1) or disable
2163:Core/Inc/arm_math.h ****     uint32_t twidCoefRModifier;               /**< twiddle coefficient modifier that supports diffe
2164:Core/Inc/arm_math.h ****     q15_t *pTwiddleAReal;                     /**< points to the real twiddle factor table. */
2165:Core/Inc/arm_math.h ****     q15_t *pTwiddleBReal;                     /**< points to the imag twiddle factor table. */
2166:Core/Inc/arm_math.h ****     const arm_cfft_instance_q15 *pCfft;       /**< points to the complex FFT instance. */
2167:Core/Inc/arm_math.h ****   } arm_rfft_instance_q15;
2168:Core/Inc/arm_math.h **** 
2169:Core/Inc/arm_math.h ****   arm_status arm_rfft_init_q15(
2170:Core/Inc/arm_math.h ****   arm_rfft_instance_q15 * S,
2171:Core/Inc/arm_math.h ****   uint32_t fftLenReal,
2172:Core/Inc/arm_math.h ****   uint32_t ifftFlagR,
2173:Core/Inc/arm_math.h ****   uint32_t bitReverseFlag);
2174:Core/Inc/arm_math.h **** 
2175:Core/Inc/arm_math.h ****   void arm_rfft_q15(
2176:Core/Inc/arm_math.h ****   const arm_rfft_instance_q15 * S,
2177:Core/Inc/arm_math.h ****   q15_t * pSrc,
2178:Core/Inc/arm_math.h ****   q15_t * pDst);
2179:Core/Inc/arm_math.h **** 
2180:Core/Inc/arm_math.h ****   /**
2181:Core/Inc/arm_math.h ****    * @brief Instance structure for the Q31 RFFT/RIFFT function.
2182:Core/Inc/arm_math.h ****    */
2183:Core/Inc/arm_math.h ****   typedef struct
2184:Core/Inc/arm_math.h ****   {
2185:Core/Inc/arm_math.h ****     uint32_t fftLenReal;                        /**< length of the real FFT. */
2186:Core/Inc/arm_math.h ****     uint8_t ifftFlagR;                          /**< flag that selects forward (ifftFlagR=0) or inv
2187:Core/Inc/arm_math.h ****     uint8_t bitReverseFlagR;                    /**< flag that enables (bitReverseFlagR=1) or disab
2188:Core/Inc/arm_math.h ****     uint32_t twidCoefRModifier;                 /**< twiddle coefficient modifier that supports dif
2189:Core/Inc/arm_math.h ****     q31_t *pTwiddleAReal;                       /**< points to the real twiddle factor table. */
2190:Core/Inc/arm_math.h ****     q31_t *pTwiddleBReal;                       /**< points to the imag twiddle factor table. */
2191:Core/Inc/arm_math.h ****     const arm_cfft_instance_q31 *pCfft;         /**< points to the complex FFT instance. */
2192:Core/Inc/arm_math.h ****   } arm_rfft_instance_q31;
2193:Core/Inc/arm_math.h **** 
ARM GAS  /tmp/ccpEjOub.s 			page 43


2194:Core/Inc/arm_math.h ****   arm_status arm_rfft_init_q31(
2195:Core/Inc/arm_math.h ****   arm_rfft_instance_q31 * S,
2196:Core/Inc/arm_math.h ****   uint32_t fftLenReal,
2197:Core/Inc/arm_math.h ****   uint32_t ifftFlagR,
2198:Core/Inc/arm_math.h ****   uint32_t bitReverseFlag);
2199:Core/Inc/arm_math.h **** 
2200:Core/Inc/arm_math.h ****   void arm_rfft_q31(
2201:Core/Inc/arm_math.h ****   const arm_rfft_instance_q31 * S,
2202:Core/Inc/arm_math.h ****   q31_t * pSrc,
2203:Core/Inc/arm_math.h ****   q31_t * pDst);
2204:Core/Inc/arm_math.h **** 
2205:Core/Inc/arm_math.h ****   /**
2206:Core/Inc/arm_math.h ****    * @brief Instance structure for the floating-point RFFT/RIFFT function.
2207:Core/Inc/arm_math.h ****    */
2208:Core/Inc/arm_math.h ****   typedef struct
2209:Core/Inc/arm_math.h ****   {
2210:Core/Inc/arm_math.h ****     uint32_t fftLenReal;                        /**< length of the real FFT. */
2211:Core/Inc/arm_math.h ****     uint16_t fftLenBy2;                         /**< length of the complex FFT. */
2212:Core/Inc/arm_math.h ****     uint8_t ifftFlagR;                          /**< flag that selects forward (ifftFlagR=0) or inv
2213:Core/Inc/arm_math.h ****     uint8_t bitReverseFlagR;                    /**< flag that enables (bitReverseFlagR=1) or disab
2214:Core/Inc/arm_math.h ****     uint32_t twidCoefRModifier;                     /**< twiddle coefficient modifier that supports
2215:Core/Inc/arm_math.h ****     float32_t *pTwiddleAReal;                   /**< points to the real twiddle factor table. */
2216:Core/Inc/arm_math.h ****     float32_t *pTwiddleBReal;                   /**< points to the imag twiddle factor table. */
2217:Core/Inc/arm_math.h ****     arm_cfft_radix4_instance_f32 *pCfft;        /**< points to the complex FFT instance. */
2218:Core/Inc/arm_math.h ****   } arm_rfft_instance_f32;
2219:Core/Inc/arm_math.h **** 
2220:Core/Inc/arm_math.h ****   arm_status arm_rfft_init_f32(
2221:Core/Inc/arm_math.h ****   arm_rfft_instance_f32 * S,
2222:Core/Inc/arm_math.h ****   arm_cfft_radix4_instance_f32 * S_CFFT,
2223:Core/Inc/arm_math.h ****   uint32_t fftLenReal,
2224:Core/Inc/arm_math.h ****   uint32_t ifftFlagR,
2225:Core/Inc/arm_math.h ****   uint32_t bitReverseFlag);
2226:Core/Inc/arm_math.h **** 
2227:Core/Inc/arm_math.h ****   void arm_rfft_f32(
2228:Core/Inc/arm_math.h ****   const arm_rfft_instance_f32 * S,
2229:Core/Inc/arm_math.h ****   float32_t * pSrc,
2230:Core/Inc/arm_math.h ****   float32_t * pDst);
2231:Core/Inc/arm_math.h **** 
2232:Core/Inc/arm_math.h ****   /**
2233:Core/Inc/arm_math.h ****    * @brief Instance structure for the floating-point RFFT/RIFFT function.
2234:Core/Inc/arm_math.h ****    */
2235:Core/Inc/arm_math.h **** typedef struct
2236:Core/Inc/arm_math.h ****   {
2237:Core/Inc/arm_math.h ****     arm_cfft_instance_f32 Sint;      /**< Internal CFFT structure. */
2238:Core/Inc/arm_math.h ****     uint16_t fftLenRFFT;             /**< length of the real sequence */
2239:Core/Inc/arm_math.h ****     float32_t * pTwiddleRFFT;        /**< Twiddle factors real stage  */
2240:Core/Inc/arm_math.h ****   } arm_rfft_fast_instance_f32 ;
2241:Core/Inc/arm_math.h **** 
2242:Core/Inc/arm_math.h **** arm_status arm_rfft_fast_init_f32 (
2243:Core/Inc/arm_math.h ****    arm_rfft_fast_instance_f32 * S,
2244:Core/Inc/arm_math.h ****    uint16_t fftLen);
2245:Core/Inc/arm_math.h **** 
2246:Core/Inc/arm_math.h **** void arm_rfft_fast_f32(
2247:Core/Inc/arm_math.h ****   arm_rfft_fast_instance_f32 * S,
2248:Core/Inc/arm_math.h ****   float32_t * p, float32_t * pOut,
2249:Core/Inc/arm_math.h ****   uint8_t ifftFlag);
2250:Core/Inc/arm_math.h **** 
ARM GAS  /tmp/ccpEjOub.s 			page 44


2251:Core/Inc/arm_math.h ****   /**
2252:Core/Inc/arm_math.h ****    * @brief Instance structure for the floating-point DCT4/IDCT4 function.
2253:Core/Inc/arm_math.h ****    */
2254:Core/Inc/arm_math.h ****   typedef struct
2255:Core/Inc/arm_math.h ****   {
2256:Core/Inc/arm_math.h ****     uint16_t N;                          /**< length of the DCT4. */
2257:Core/Inc/arm_math.h ****     uint16_t Nby2;                       /**< half of the length of the DCT4. */
2258:Core/Inc/arm_math.h ****     float32_t normalize;                 /**< normalizing factor. */
2259:Core/Inc/arm_math.h ****     float32_t *pTwiddle;                 /**< points to the twiddle factor table. */
2260:Core/Inc/arm_math.h ****     float32_t *pCosFactor;               /**< points to the cosFactor table. */
2261:Core/Inc/arm_math.h ****     arm_rfft_instance_f32 *pRfft;        /**< points to the real FFT instance. */
2262:Core/Inc/arm_math.h ****     arm_cfft_radix4_instance_f32 *pCfft; /**< points to the complex FFT instance. */
2263:Core/Inc/arm_math.h ****   } arm_dct4_instance_f32;
2264:Core/Inc/arm_math.h **** 
2265:Core/Inc/arm_math.h **** 
2266:Core/Inc/arm_math.h ****   /**
2267:Core/Inc/arm_math.h ****    * @brief  Initialization function for the floating-point DCT4/IDCT4.
2268:Core/Inc/arm_math.h ****    * @param[in,out] S          points to an instance of floating-point DCT4/IDCT4 structure.
2269:Core/Inc/arm_math.h ****    * @param[in]     S_RFFT     points to an instance of floating-point RFFT/RIFFT structure.
2270:Core/Inc/arm_math.h ****    * @param[in]     S_CFFT     points to an instance of floating-point CFFT/CIFFT structure.
2271:Core/Inc/arm_math.h ****    * @param[in]     N          length of the DCT4.
2272:Core/Inc/arm_math.h ****    * @param[in]     Nby2       half of the length of the DCT4.
2273:Core/Inc/arm_math.h ****    * @param[in]     normalize  normalizing factor.
2274:Core/Inc/arm_math.h ****    * @return      arm_status function returns ARM_MATH_SUCCESS if initialization is successful or A
2275:Core/Inc/arm_math.h ****    */
2276:Core/Inc/arm_math.h ****   arm_status arm_dct4_init_f32(
2277:Core/Inc/arm_math.h ****   arm_dct4_instance_f32 * S,
2278:Core/Inc/arm_math.h ****   arm_rfft_instance_f32 * S_RFFT,
2279:Core/Inc/arm_math.h ****   arm_cfft_radix4_instance_f32 * S_CFFT,
2280:Core/Inc/arm_math.h ****   uint16_t N,
2281:Core/Inc/arm_math.h ****   uint16_t Nby2,
2282:Core/Inc/arm_math.h ****   float32_t normalize);
2283:Core/Inc/arm_math.h **** 
2284:Core/Inc/arm_math.h **** 
2285:Core/Inc/arm_math.h ****   /**
2286:Core/Inc/arm_math.h ****    * @brief Processing function for the floating-point DCT4/IDCT4.
2287:Core/Inc/arm_math.h ****    * @param[in]     S              points to an instance of the floating-point DCT4/IDCT4 structure
2288:Core/Inc/arm_math.h ****    * @param[in]     pState         points to state buffer.
2289:Core/Inc/arm_math.h ****    * @param[in,out] pInlineBuffer  points to the in-place input and output buffer.
2290:Core/Inc/arm_math.h ****    */
2291:Core/Inc/arm_math.h ****   void arm_dct4_f32(
2292:Core/Inc/arm_math.h ****   const arm_dct4_instance_f32 * S,
2293:Core/Inc/arm_math.h ****   float32_t * pState,
2294:Core/Inc/arm_math.h ****   float32_t * pInlineBuffer);
2295:Core/Inc/arm_math.h **** 
2296:Core/Inc/arm_math.h **** 
2297:Core/Inc/arm_math.h ****   /**
2298:Core/Inc/arm_math.h ****    * @brief Instance structure for the Q31 DCT4/IDCT4 function.
2299:Core/Inc/arm_math.h ****    */
2300:Core/Inc/arm_math.h ****   typedef struct
2301:Core/Inc/arm_math.h ****   {
2302:Core/Inc/arm_math.h ****     uint16_t N;                          /**< length of the DCT4. */
2303:Core/Inc/arm_math.h ****     uint16_t Nby2;                       /**< half of the length of the DCT4. */
2304:Core/Inc/arm_math.h ****     q31_t normalize;                     /**< normalizing factor. */
2305:Core/Inc/arm_math.h ****     q31_t *pTwiddle;                     /**< points to the twiddle factor table. */
2306:Core/Inc/arm_math.h ****     q31_t *pCosFactor;                   /**< points to the cosFactor table. */
2307:Core/Inc/arm_math.h ****     arm_rfft_instance_q31 *pRfft;        /**< points to the real FFT instance. */
ARM GAS  /tmp/ccpEjOub.s 			page 45


2308:Core/Inc/arm_math.h ****     arm_cfft_radix4_instance_q31 *pCfft; /**< points to the complex FFT instance. */
2309:Core/Inc/arm_math.h ****   } arm_dct4_instance_q31;
2310:Core/Inc/arm_math.h **** 
2311:Core/Inc/arm_math.h **** 
2312:Core/Inc/arm_math.h ****   /**
2313:Core/Inc/arm_math.h ****    * @brief  Initialization function for the Q31 DCT4/IDCT4.
2314:Core/Inc/arm_math.h ****    * @param[in,out] S          points to an instance of Q31 DCT4/IDCT4 structure.
2315:Core/Inc/arm_math.h ****    * @param[in]     S_RFFT     points to an instance of Q31 RFFT/RIFFT structure
2316:Core/Inc/arm_math.h ****    * @param[in]     S_CFFT     points to an instance of Q31 CFFT/CIFFT structure
2317:Core/Inc/arm_math.h ****    * @param[in]     N          length of the DCT4.
2318:Core/Inc/arm_math.h ****    * @param[in]     Nby2       half of the length of the DCT4.
2319:Core/Inc/arm_math.h ****    * @param[in]     normalize  normalizing factor.
2320:Core/Inc/arm_math.h ****    * @return      arm_status function returns ARM_MATH_SUCCESS if initialization is successful or A
2321:Core/Inc/arm_math.h ****    */
2322:Core/Inc/arm_math.h ****   arm_status arm_dct4_init_q31(
2323:Core/Inc/arm_math.h ****   arm_dct4_instance_q31 * S,
2324:Core/Inc/arm_math.h ****   arm_rfft_instance_q31 * S_RFFT,
2325:Core/Inc/arm_math.h ****   arm_cfft_radix4_instance_q31 * S_CFFT,
2326:Core/Inc/arm_math.h ****   uint16_t N,
2327:Core/Inc/arm_math.h ****   uint16_t Nby2,
2328:Core/Inc/arm_math.h ****   q31_t normalize);
2329:Core/Inc/arm_math.h **** 
2330:Core/Inc/arm_math.h **** 
2331:Core/Inc/arm_math.h ****   /**
2332:Core/Inc/arm_math.h ****    * @brief Processing function for the Q31 DCT4/IDCT4.
2333:Core/Inc/arm_math.h ****    * @param[in]     S              points to an instance of the Q31 DCT4 structure.
2334:Core/Inc/arm_math.h ****    * @param[in]     pState         points to state buffer.
2335:Core/Inc/arm_math.h ****    * @param[in,out] pInlineBuffer  points to the in-place input and output buffer.
2336:Core/Inc/arm_math.h ****    */
2337:Core/Inc/arm_math.h ****   void arm_dct4_q31(
2338:Core/Inc/arm_math.h ****   const arm_dct4_instance_q31 * S,
2339:Core/Inc/arm_math.h ****   q31_t * pState,
2340:Core/Inc/arm_math.h ****   q31_t * pInlineBuffer);
2341:Core/Inc/arm_math.h **** 
2342:Core/Inc/arm_math.h **** 
2343:Core/Inc/arm_math.h ****   /**
2344:Core/Inc/arm_math.h ****    * @brief Instance structure for the Q15 DCT4/IDCT4 function.
2345:Core/Inc/arm_math.h ****    */
2346:Core/Inc/arm_math.h ****   typedef struct
2347:Core/Inc/arm_math.h ****   {
2348:Core/Inc/arm_math.h ****     uint16_t N;                          /**< length of the DCT4. */
2349:Core/Inc/arm_math.h ****     uint16_t Nby2;                       /**< half of the length of the DCT4. */
2350:Core/Inc/arm_math.h ****     q15_t normalize;                     /**< normalizing factor. */
2351:Core/Inc/arm_math.h ****     q15_t *pTwiddle;                     /**< points to the twiddle factor table. */
2352:Core/Inc/arm_math.h ****     q15_t *pCosFactor;                   /**< points to the cosFactor table. */
2353:Core/Inc/arm_math.h ****     arm_rfft_instance_q15 *pRfft;        /**< points to the real FFT instance. */
2354:Core/Inc/arm_math.h ****     arm_cfft_radix4_instance_q15 *pCfft; /**< points to the complex FFT instance. */
2355:Core/Inc/arm_math.h ****   } arm_dct4_instance_q15;
2356:Core/Inc/arm_math.h **** 
2357:Core/Inc/arm_math.h **** 
2358:Core/Inc/arm_math.h ****   /**
2359:Core/Inc/arm_math.h ****    * @brief  Initialization function for the Q15 DCT4/IDCT4.
2360:Core/Inc/arm_math.h ****    * @param[in,out] S          points to an instance of Q15 DCT4/IDCT4 structure.
2361:Core/Inc/arm_math.h ****    * @param[in]     S_RFFT     points to an instance of Q15 RFFT/RIFFT structure.
2362:Core/Inc/arm_math.h ****    * @param[in]     S_CFFT     points to an instance of Q15 CFFT/CIFFT structure.
2363:Core/Inc/arm_math.h ****    * @param[in]     N          length of the DCT4.
2364:Core/Inc/arm_math.h ****    * @param[in]     Nby2       half of the length of the DCT4.
ARM GAS  /tmp/ccpEjOub.s 			page 46


2365:Core/Inc/arm_math.h ****    * @param[in]     normalize  normalizing factor.
2366:Core/Inc/arm_math.h ****    * @return      arm_status function returns ARM_MATH_SUCCESS if initialization is successful or A
2367:Core/Inc/arm_math.h ****    */
2368:Core/Inc/arm_math.h ****   arm_status arm_dct4_init_q15(
2369:Core/Inc/arm_math.h ****   arm_dct4_instance_q15 * S,
2370:Core/Inc/arm_math.h ****   arm_rfft_instance_q15 * S_RFFT,
2371:Core/Inc/arm_math.h ****   arm_cfft_radix4_instance_q15 * S_CFFT,
2372:Core/Inc/arm_math.h ****   uint16_t N,
2373:Core/Inc/arm_math.h ****   uint16_t Nby2,
2374:Core/Inc/arm_math.h ****   q15_t normalize);
2375:Core/Inc/arm_math.h **** 
2376:Core/Inc/arm_math.h **** 
2377:Core/Inc/arm_math.h ****   /**
2378:Core/Inc/arm_math.h ****    * @brief Processing function for the Q15 DCT4/IDCT4.
2379:Core/Inc/arm_math.h ****    * @param[in]     S              points to an instance of the Q15 DCT4 structure.
2380:Core/Inc/arm_math.h ****    * @param[in]     pState         points to state buffer.
2381:Core/Inc/arm_math.h ****    * @param[in,out] pInlineBuffer  points to the in-place input and output buffer.
2382:Core/Inc/arm_math.h ****    */
2383:Core/Inc/arm_math.h ****   void arm_dct4_q15(
2384:Core/Inc/arm_math.h ****   const arm_dct4_instance_q15 * S,
2385:Core/Inc/arm_math.h ****   q15_t * pState,
2386:Core/Inc/arm_math.h ****   q15_t * pInlineBuffer);
2387:Core/Inc/arm_math.h **** 
2388:Core/Inc/arm_math.h **** 
2389:Core/Inc/arm_math.h ****   /**
2390:Core/Inc/arm_math.h ****    * @brief Floating-point vector addition.
2391:Core/Inc/arm_math.h ****    * @param[in]  pSrcA      points to the first input vector
2392:Core/Inc/arm_math.h ****    * @param[in]  pSrcB      points to the second input vector
2393:Core/Inc/arm_math.h ****    * @param[out] pDst       points to the output vector
2394:Core/Inc/arm_math.h ****    * @param[in]  blockSize  number of samples in each vector
2395:Core/Inc/arm_math.h ****    */
2396:Core/Inc/arm_math.h ****   void arm_add_f32(
2397:Core/Inc/arm_math.h ****   float32_t * pSrcA,
2398:Core/Inc/arm_math.h ****   float32_t * pSrcB,
2399:Core/Inc/arm_math.h ****   float32_t * pDst,
2400:Core/Inc/arm_math.h ****   uint32_t blockSize);
2401:Core/Inc/arm_math.h **** 
2402:Core/Inc/arm_math.h **** 
2403:Core/Inc/arm_math.h ****   /**
2404:Core/Inc/arm_math.h ****    * @brief Q7 vector addition.
2405:Core/Inc/arm_math.h ****    * @param[in]  pSrcA      points to the first input vector
2406:Core/Inc/arm_math.h ****    * @param[in]  pSrcB      points to the second input vector
2407:Core/Inc/arm_math.h ****    * @param[out] pDst       points to the output vector
2408:Core/Inc/arm_math.h ****    * @param[in]  blockSize  number of samples in each vector
2409:Core/Inc/arm_math.h ****    */
2410:Core/Inc/arm_math.h ****   void arm_add_q7(
2411:Core/Inc/arm_math.h ****   q7_t * pSrcA,
2412:Core/Inc/arm_math.h ****   q7_t * pSrcB,
2413:Core/Inc/arm_math.h ****   q7_t * pDst,
2414:Core/Inc/arm_math.h ****   uint32_t blockSize);
2415:Core/Inc/arm_math.h **** 
2416:Core/Inc/arm_math.h **** 
2417:Core/Inc/arm_math.h ****   /**
2418:Core/Inc/arm_math.h ****    * @brief Q15 vector addition.
2419:Core/Inc/arm_math.h ****    * @param[in]  pSrcA      points to the first input vector
2420:Core/Inc/arm_math.h ****    * @param[in]  pSrcB      points to the second input vector
2421:Core/Inc/arm_math.h ****    * @param[out] pDst       points to the output vector
ARM GAS  /tmp/ccpEjOub.s 			page 47


2422:Core/Inc/arm_math.h ****    * @param[in]  blockSize  number of samples in each vector
2423:Core/Inc/arm_math.h ****    */
2424:Core/Inc/arm_math.h ****   void arm_add_q15(
2425:Core/Inc/arm_math.h ****   q15_t * pSrcA,
2426:Core/Inc/arm_math.h ****   q15_t * pSrcB,
2427:Core/Inc/arm_math.h ****   q15_t * pDst,
2428:Core/Inc/arm_math.h ****   uint32_t blockSize);
2429:Core/Inc/arm_math.h **** 
2430:Core/Inc/arm_math.h **** 
2431:Core/Inc/arm_math.h ****   /**
2432:Core/Inc/arm_math.h ****    * @brief Q31 vector addition.
2433:Core/Inc/arm_math.h ****    * @param[in]  pSrcA      points to the first input vector
2434:Core/Inc/arm_math.h ****    * @param[in]  pSrcB      points to the second input vector
2435:Core/Inc/arm_math.h ****    * @param[out] pDst       points to the output vector
2436:Core/Inc/arm_math.h ****    * @param[in]  blockSize  number of samples in each vector
2437:Core/Inc/arm_math.h ****    */
2438:Core/Inc/arm_math.h ****   void arm_add_q31(
2439:Core/Inc/arm_math.h ****   q31_t * pSrcA,
2440:Core/Inc/arm_math.h ****   q31_t * pSrcB,
2441:Core/Inc/arm_math.h ****   q31_t * pDst,
2442:Core/Inc/arm_math.h ****   uint32_t blockSize);
2443:Core/Inc/arm_math.h **** 
2444:Core/Inc/arm_math.h **** 
2445:Core/Inc/arm_math.h ****   /**
2446:Core/Inc/arm_math.h ****    * @brief Floating-point vector subtraction.
2447:Core/Inc/arm_math.h ****    * @param[in]  pSrcA      points to the first input vector
2448:Core/Inc/arm_math.h ****    * @param[in]  pSrcB      points to the second input vector
2449:Core/Inc/arm_math.h ****    * @param[out] pDst       points to the output vector
2450:Core/Inc/arm_math.h ****    * @param[in]  blockSize  number of samples in each vector
2451:Core/Inc/arm_math.h ****    */
2452:Core/Inc/arm_math.h ****   void arm_sub_f32(
2453:Core/Inc/arm_math.h ****   float32_t * pSrcA,
2454:Core/Inc/arm_math.h ****   float32_t * pSrcB,
2455:Core/Inc/arm_math.h ****   float32_t * pDst,
2456:Core/Inc/arm_math.h ****   uint32_t blockSize);
2457:Core/Inc/arm_math.h **** 
2458:Core/Inc/arm_math.h **** 
2459:Core/Inc/arm_math.h ****   /**
2460:Core/Inc/arm_math.h ****    * @brief Q7 vector subtraction.
2461:Core/Inc/arm_math.h ****    * @param[in]  pSrcA      points to the first input vector
2462:Core/Inc/arm_math.h ****    * @param[in]  pSrcB      points to the second input vector
2463:Core/Inc/arm_math.h ****    * @param[out] pDst       points to the output vector
2464:Core/Inc/arm_math.h ****    * @param[in]  blockSize  number of samples in each vector
2465:Core/Inc/arm_math.h ****    */
2466:Core/Inc/arm_math.h ****   void arm_sub_q7(
2467:Core/Inc/arm_math.h ****   q7_t * pSrcA,
2468:Core/Inc/arm_math.h ****   q7_t * pSrcB,
2469:Core/Inc/arm_math.h ****   q7_t * pDst,
2470:Core/Inc/arm_math.h ****   uint32_t blockSize);
2471:Core/Inc/arm_math.h **** 
2472:Core/Inc/arm_math.h **** 
2473:Core/Inc/arm_math.h ****   /**
2474:Core/Inc/arm_math.h ****    * @brief Q15 vector subtraction.
2475:Core/Inc/arm_math.h ****    * @param[in]  pSrcA      points to the first input vector
2476:Core/Inc/arm_math.h ****    * @param[in]  pSrcB      points to the second input vector
2477:Core/Inc/arm_math.h ****    * @param[out] pDst       points to the output vector
2478:Core/Inc/arm_math.h ****    * @param[in]  blockSize  number of samples in each vector
ARM GAS  /tmp/ccpEjOub.s 			page 48


2479:Core/Inc/arm_math.h ****    */
2480:Core/Inc/arm_math.h ****   void arm_sub_q15(
2481:Core/Inc/arm_math.h ****   q15_t * pSrcA,
2482:Core/Inc/arm_math.h ****   q15_t * pSrcB,
2483:Core/Inc/arm_math.h ****   q15_t * pDst,
2484:Core/Inc/arm_math.h ****   uint32_t blockSize);
2485:Core/Inc/arm_math.h **** 
2486:Core/Inc/arm_math.h **** 
2487:Core/Inc/arm_math.h ****   /**
2488:Core/Inc/arm_math.h ****    * @brief Q31 vector subtraction.
2489:Core/Inc/arm_math.h ****    * @param[in]  pSrcA      points to the first input vector
2490:Core/Inc/arm_math.h ****    * @param[in]  pSrcB      points to the second input vector
2491:Core/Inc/arm_math.h ****    * @param[out] pDst       points to the output vector
2492:Core/Inc/arm_math.h ****    * @param[in]  blockSize  number of samples in each vector
2493:Core/Inc/arm_math.h ****    */
2494:Core/Inc/arm_math.h ****   void arm_sub_q31(
2495:Core/Inc/arm_math.h ****   q31_t * pSrcA,
2496:Core/Inc/arm_math.h ****   q31_t * pSrcB,
2497:Core/Inc/arm_math.h ****   q31_t * pDst,
2498:Core/Inc/arm_math.h ****   uint32_t blockSize);
2499:Core/Inc/arm_math.h **** 
2500:Core/Inc/arm_math.h **** 
2501:Core/Inc/arm_math.h ****   /**
2502:Core/Inc/arm_math.h ****    * @brief Multiplies a floating-point vector by a scalar.
2503:Core/Inc/arm_math.h ****    * @param[in]  pSrc       points to the input vector
2504:Core/Inc/arm_math.h ****    * @param[in]  scale      scale factor to be applied
2505:Core/Inc/arm_math.h ****    * @param[out] pDst       points to the output vector
2506:Core/Inc/arm_math.h ****    * @param[in]  blockSize  number of samples in the vector
2507:Core/Inc/arm_math.h ****    */
2508:Core/Inc/arm_math.h ****   void arm_scale_f32(
2509:Core/Inc/arm_math.h ****   float32_t * pSrc,
2510:Core/Inc/arm_math.h ****   float32_t scale,
2511:Core/Inc/arm_math.h ****   float32_t * pDst,
2512:Core/Inc/arm_math.h ****   uint32_t blockSize);
2513:Core/Inc/arm_math.h **** 
2514:Core/Inc/arm_math.h **** 
2515:Core/Inc/arm_math.h ****   /**
2516:Core/Inc/arm_math.h ****    * @brief Multiplies a Q7 vector by a scalar.
2517:Core/Inc/arm_math.h ****    * @param[in]  pSrc        points to the input vector
2518:Core/Inc/arm_math.h ****    * @param[in]  scaleFract  fractional portion of the scale value
2519:Core/Inc/arm_math.h ****    * @param[in]  shift       number of bits to shift the result by
2520:Core/Inc/arm_math.h ****    * @param[out] pDst        points to the output vector
2521:Core/Inc/arm_math.h ****    * @param[in]  blockSize   number of samples in the vector
2522:Core/Inc/arm_math.h ****    */
2523:Core/Inc/arm_math.h ****   void arm_scale_q7(
2524:Core/Inc/arm_math.h ****   q7_t * pSrc,
2525:Core/Inc/arm_math.h ****   q7_t scaleFract,
2526:Core/Inc/arm_math.h ****   int8_t shift,
2527:Core/Inc/arm_math.h ****   q7_t * pDst,
2528:Core/Inc/arm_math.h ****   uint32_t blockSize);
2529:Core/Inc/arm_math.h **** 
2530:Core/Inc/arm_math.h **** 
2531:Core/Inc/arm_math.h ****   /**
2532:Core/Inc/arm_math.h ****    * @brief Multiplies a Q15 vector by a scalar.
2533:Core/Inc/arm_math.h ****    * @param[in]  pSrc        points to the input vector
2534:Core/Inc/arm_math.h ****    * @param[in]  scaleFract  fractional portion of the scale value
2535:Core/Inc/arm_math.h ****    * @param[in]  shift       number of bits to shift the result by
ARM GAS  /tmp/ccpEjOub.s 			page 49


2536:Core/Inc/arm_math.h ****    * @param[out] pDst        points to the output vector
2537:Core/Inc/arm_math.h ****    * @param[in]  blockSize   number of samples in the vector
2538:Core/Inc/arm_math.h ****    */
2539:Core/Inc/arm_math.h ****   void arm_scale_q15(
2540:Core/Inc/arm_math.h ****   q15_t * pSrc,
2541:Core/Inc/arm_math.h ****   q15_t scaleFract,
2542:Core/Inc/arm_math.h ****   int8_t shift,
2543:Core/Inc/arm_math.h ****   q15_t * pDst,
2544:Core/Inc/arm_math.h ****   uint32_t blockSize);
2545:Core/Inc/arm_math.h **** 
2546:Core/Inc/arm_math.h **** 
2547:Core/Inc/arm_math.h ****   /**
2548:Core/Inc/arm_math.h ****    * @brief Multiplies a Q31 vector by a scalar.
2549:Core/Inc/arm_math.h ****    * @param[in]  pSrc        points to the input vector
2550:Core/Inc/arm_math.h ****    * @param[in]  scaleFract  fractional portion of the scale value
2551:Core/Inc/arm_math.h ****    * @param[in]  shift       number of bits to shift the result by
2552:Core/Inc/arm_math.h ****    * @param[out] pDst        points to the output vector
2553:Core/Inc/arm_math.h ****    * @param[in]  blockSize   number of samples in the vector
2554:Core/Inc/arm_math.h ****    */
2555:Core/Inc/arm_math.h ****   void arm_scale_q31(
2556:Core/Inc/arm_math.h ****   q31_t * pSrc,
2557:Core/Inc/arm_math.h ****   q31_t scaleFract,
2558:Core/Inc/arm_math.h ****   int8_t shift,
2559:Core/Inc/arm_math.h ****   q31_t * pDst,
2560:Core/Inc/arm_math.h ****   uint32_t blockSize);
2561:Core/Inc/arm_math.h **** 
2562:Core/Inc/arm_math.h **** 
2563:Core/Inc/arm_math.h ****   /**
2564:Core/Inc/arm_math.h ****    * @brief Q7 vector absolute value.
2565:Core/Inc/arm_math.h ****    * @param[in]  pSrc       points to the input buffer
2566:Core/Inc/arm_math.h ****    * @param[out] pDst       points to the output buffer
2567:Core/Inc/arm_math.h ****    * @param[in]  blockSize  number of samples in each vector
2568:Core/Inc/arm_math.h ****    */
2569:Core/Inc/arm_math.h ****   void arm_abs_q7(
2570:Core/Inc/arm_math.h ****   q7_t * pSrc,
2571:Core/Inc/arm_math.h ****   q7_t * pDst,
2572:Core/Inc/arm_math.h ****   uint32_t blockSize);
2573:Core/Inc/arm_math.h **** 
2574:Core/Inc/arm_math.h **** 
2575:Core/Inc/arm_math.h ****   /**
2576:Core/Inc/arm_math.h ****    * @brief Floating-point vector absolute value.
2577:Core/Inc/arm_math.h ****    * @param[in]  pSrc       points to the input buffer
2578:Core/Inc/arm_math.h ****    * @param[out] pDst       points to the output buffer
2579:Core/Inc/arm_math.h ****    * @param[in]  blockSize  number of samples in each vector
2580:Core/Inc/arm_math.h ****    */
2581:Core/Inc/arm_math.h ****   void arm_abs_f32(
2582:Core/Inc/arm_math.h ****   float32_t * pSrc,
2583:Core/Inc/arm_math.h ****   float32_t * pDst,
2584:Core/Inc/arm_math.h ****   uint32_t blockSize);
2585:Core/Inc/arm_math.h **** 
2586:Core/Inc/arm_math.h **** 
2587:Core/Inc/arm_math.h ****   /**
2588:Core/Inc/arm_math.h ****    * @brief Q15 vector absolute value.
2589:Core/Inc/arm_math.h ****    * @param[in]  pSrc       points to the input buffer
2590:Core/Inc/arm_math.h ****    * @param[out] pDst       points to the output buffer
2591:Core/Inc/arm_math.h ****    * @param[in]  blockSize  number of samples in each vector
2592:Core/Inc/arm_math.h ****    */
ARM GAS  /tmp/ccpEjOub.s 			page 50


2593:Core/Inc/arm_math.h ****   void arm_abs_q15(
2594:Core/Inc/arm_math.h ****   q15_t * pSrc,
2595:Core/Inc/arm_math.h ****   q15_t * pDst,
2596:Core/Inc/arm_math.h ****   uint32_t blockSize);
2597:Core/Inc/arm_math.h **** 
2598:Core/Inc/arm_math.h **** 
2599:Core/Inc/arm_math.h ****   /**
2600:Core/Inc/arm_math.h ****    * @brief Q31 vector absolute value.
2601:Core/Inc/arm_math.h ****    * @param[in]  pSrc       points to the input buffer
2602:Core/Inc/arm_math.h ****    * @param[out] pDst       points to the output buffer
2603:Core/Inc/arm_math.h ****    * @param[in]  blockSize  number of samples in each vector
2604:Core/Inc/arm_math.h ****    */
2605:Core/Inc/arm_math.h ****   void arm_abs_q31(
2606:Core/Inc/arm_math.h ****   q31_t * pSrc,
2607:Core/Inc/arm_math.h ****   q31_t * pDst,
2608:Core/Inc/arm_math.h ****   uint32_t blockSize);
2609:Core/Inc/arm_math.h **** 
2610:Core/Inc/arm_math.h **** 
2611:Core/Inc/arm_math.h ****   /**
2612:Core/Inc/arm_math.h ****    * @brief Dot product of floating-point vectors.
2613:Core/Inc/arm_math.h ****    * @param[in]  pSrcA      points to the first input vector
2614:Core/Inc/arm_math.h ****    * @param[in]  pSrcB      points to the second input vector
2615:Core/Inc/arm_math.h ****    * @param[in]  blockSize  number of samples in each vector
2616:Core/Inc/arm_math.h ****    * @param[out] result     output result returned here
2617:Core/Inc/arm_math.h ****    */
2618:Core/Inc/arm_math.h ****   void arm_dot_prod_f32(
2619:Core/Inc/arm_math.h ****   float32_t * pSrcA,
2620:Core/Inc/arm_math.h ****   float32_t * pSrcB,
2621:Core/Inc/arm_math.h ****   uint32_t blockSize,
2622:Core/Inc/arm_math.h ****   float32_t * result);
2623:Core/Inc/arm_math.h **** 
2624:Core/Inc/arm_math.h **** 
2625:Core/Inc/arm_math.h ****   /**
2626:Core/Inc/arm_math.h ****    * @brief Dot product of Q7 vectors.
2627:Core/Inc/arm_math.h ****    * @param[in]  pSrcA      points to the first input vector
2628:Core/Inc/arm_math.h ****    * @param[in]  pSrcB      points to the second input vector
2629:Core/Inc/arm_math.h ****    * @param[in]  blockSize  number of samples in each vector
2630:Core/Inc/arm_math.h ****    * @param[out] result     output result returned here
2631:Core/Inc/arm_math.h ****    */
2632:Core/Inc/arm_math.h ****   void arm_dot_prod_q7(
2633:Core/Inc/arm_math.h ****   q7_t * pSrcA,
2634:Core/Inc/arm_math.h ****   q7_t * pSrcB,
2635:Core/Inc/arm_math.h ****   uint32_t blockSize,
2636:Core/Inc/arm_math.h ****   q31_t * result);
2637:Core/Inc/arm_math.h **** 
2638:Core/Inc/arm_math.h **** 
2639:Core/Inc/arm_math.h ****   /**
2640:Core/Inc/arm_math.h ****    * @brief Dot product of Q15 vectors.
2641:Core/Inc/arm_math.h ****    * @param[in]  pSrcA      points to the first input vector
2642:Core/Inc/arm_math.h ****    * @param[in]  pSrcB      points to the second input vector
2643:Core/Inc/arm_math.h ****    * @param[in]  blockSize  number of samples in each vector
2644:Core/Inc/arm_math.h ****    * @param[out] result     output result returned here
2645:Core/Inc/arm_math.h ****    */
2646:Core/Inc/arm_math.h ****   void arm_dot_prod_q15(
2647:Core/Inc/arm_math.h ****   q15_t * pSrcA,
2648:Core/Inc/arm_math.h ****   q15_t * pSrcB,
2649:Core/Inc/arm_math.h ****   uint32_t blockSize,
ARM GAS  /tmp/ccpEjOub.s 			page 51


2650:Core/Inc/arm_math.h ****   q63_t * result);
2651:Core/Inc/arm_math.h **** 
2652:Core/Inc/arm_math.h **** 
2653:Core/Inc/arm_math.h ****   /**
2654:Core/Inc/arm_math.h ****    * @brief Dot product of Q31 vectors.
2655:Core/Inc/arm_math.h ****    * @param[in]  pSrcA      points to the first input vector
2656:Core/Inc/arm_math.h ****    * @param[in]  pSrcB      points to the second input vector
2657:Core/Inc/arm_math.h ****    * @param[in]  blockSize  number of samples in each vector
2658:Core/Inc/arm_math.h ****    * @param[out] result     output result returned here
2659:Core/Inc/arm_math.h ****    */
2660:Core/Inc/arm_math.h ****   void arm_dot_prod_q31(
2661:Core/Inc/arm_math.h ****   q31_t * pSrcA,
2662:Core/Inc/arm_math.h ****   q31_t * pSrcB,
2663:Core/Inc/arm_math.h ****   uint32_t blockSize,
2664:Core/Inc/arm_math.h ****   q63_t * result);
2665:Core/Inc/arm_math.h **** 
2666:Core/Inc/arm_math.h **** 
2667:Core/Inc/arm_math.h ****   /**
2668:Core/Inc/arm_math.h ****    * @brief  Shifts the elements of a Q7 vector a specified number of bits.
2669:Core/Inc/arm_math.h ****    * @param[in]  pSrc       points to the input vector
2670:Core/Inc/arm_math.h ****    * @param[in]  shiftBits  number of bits to shift.  A positive value shifts left; a negative valu
2671:Core/Inc/arm_math.h ****    * @param[out] pDst       points to the output vector
2672:Core/Inc/arm_math.h ****    * @param[in]  blockSize  number of samples in the vector
2673:Core/Inc/arm_math.h ****    */
2674:Core/Inc/arm_math.h ****   void arm_shift_q7(
2675:Core/Inc/arm_math.h ****   q7_t * pSrc,
2676:Core/Inc/arm_math.h ****   int8_t shiftBits,
2677:Core/Inc/arm_math.h ****   q7_t * pDst,
2678:Core/Inc/arm_math.h ****   uint32_t blockSize);
2679:Core/Inc/arm_math.h **** 
2680:Core/Inc/arm_math.h **** 
2681:Core/Inc/arm_math.h ****   /**
2682:Core/Inc/arm_math.h ****    * @brief  Shifts the elements of a Q15 vector a specified number of bits.
2683:Core/Inc/arm_math.h ****    * @param[in]  pSrc       points to the input vector
2684:Core/Inc/arm_math.h ****    * @param[in]  shiftBits  number of bits to shift.  A positive value shifts left; a negative valu
2685:Core/Inc/arm_math.h ****    * @param[out] pDst       points to the output vector
2686:Core/Inc/arm_math.h ****    * @param[in]  blockSize  number of samples in the vector
2687:Core/Inc/arm_math.h ****    */
2688:Core/Inc/arm_math.h ****   void arm_shift_q15(
2689:Core/Inc/arm_math.h ****   q15_t * pSrc,
2690:Core/Inc/arm_math.h ****   int8_t shiftBits,
2691:Core/Inc/arm_math.h ****   q15_t * pDst,
2692:Core/Inc/arm_math.h ****   uint32_t blockSize);
2693:Core/Inc/arm_math.h **** 
2694:Core/Inc/arm_math.h **** 
2695:Core/Inc/arm_math.h ****   /**
2696:Core/Inc/arm_math.h ****    * @brief  Shifts the elements of a Q31 vector a specified number of bits.
2697:Core/Inc/arm_math.h ****    * @param[in]  pSrc       points to the input vector
2698:Core/Inc/arm_math.h ****    * @param[in]  shiftBits  number of bits to shift.  A positive value shifts left; a negative valu
2699:Core/Inc/arm_math.h ****    * @param[out] pDst       points to the output vector
2700:Core/Inc/arm_math.h ****    * @param[in]  blockSize  number of samples in the vector
2701:Core/Inc/arm_math.h ****    */
2702:Core/Inc/arm_math.h ****   void arm_shift_q31(
2703:Core/Inc/arm_math.h ****   q31_t * pSrc,
2704:Core/Inc/arm_math.h ****   int8_t shiftBits,
2705:Core/Inc/arm_math.h ****   q31_t * pDst,
2706:Core/Inc/arm_math.h ****   uint32_t blockSize);
ARM GAS  /tmp/ccpEjOub.s 			page 52


2707:Core/Inc/arm_math.h **** 
2708:Core/Inc/arm_math.h **** 
2709:Core/Inc/arm_math.h ****   /**
2710:Core/Inc/arm_math.h ****    * @brief  Adds a constant offset to a floating-point vector.
2711:Core/Inc/arm_math.h ****    * @param[in]  pSrc       points to the input vector
2712:Core/Inc/arm_math.h ****    * @param[in]  offset     is the offset to be added
2713:Core/Inc/arm_math.h ****    * @param[out] pDst       points to the output vector
2714:Core/Inc/arm_math.h ****    * @param[in]  blockSize  number of samples in the vector
2715:Core/Inc/arm_math.h ****    */
2716:Core/Inc/arm_math.h ****   void arm_offset_f32(
2717:Core/Inc/arm_math.h ****   float32_t * pSrc,
2718:Core/Inc/arm_math.h ****   float32_t offset,
2719:Core/Inc/arm_math.h ****   float32_t * pDst,
2720:Core/Inc/arm_math.h ****   uint32_t blockSize);
2721:Core/Inc/arm_math.h **** 
2722:Core/Inc/arm_math.h **** 
2723:Core/Inc/arm_math.h ****   /**
2724:Core/Inc/arm_math.h ****    * @brief  Adds a constant offset to a Q7 vector.
2725:Core/Inc/arm_math.h ****    * @param[in]  pSrc       points to the input vector
2726:Core/Inc/arm_math.h ****    * @param[in]  offset     is the offset to be added
2727:Core/Inc/arm_math.h ****    * @param[out] pDst       points to the output vector
2728:Core/Inc/arm_math.h ****    * @param[in]  blockSize  number of samples in the vector
2729:Core/Inc/arm_math.h ****    */
2730:Core/Inc/arm_math.h ****   void arm_offset_q7(
2731:Core/Inc/arm_math.h ****   q7_t * pSrc,
2732:Core/Inc/arm_math.h ****   q7_t offset,
2733:Core/Inc/arm_math.h ****   q7_t * pDst,
2734:Core/Inc/arm_math.h ****   uint32_t blockSize);
2735:Core/Inc/arm_math.h **** 
2736:Core/Inc/arm_math.h **** 
2737:Core/Inc/arm_math.h ****   /**
2738:Core/Inc/arm_math.h ****    * @brief  Adds a constant offset to a Q15 vector.
2739:Core/Inc/arm_math.h ****    * @param[in]  pSrc       points to the input vector
2740:Core/Inc/arm_math.h ****    * @param[in]  offset     is the offset to be added
2741:Core/Inc/arm_math.h ****    * @param[out] pDst       points to the output vector
2742:Core/Inc/arm_math.h ****    * @param[in]  blockSize  number of samples in the vector
2743:Core/Inc/arm_math.h ****    */
2744:Core/Inc/arm_math.h ****   void arm_offset_q15(
2745:Core/Inc/arm_math.h ****   q15_t * pSrc,
2746:Core/Inc/arm_math.h ****   q15_t offset,
2747:Core/Inc/arm_math.h ****   q15_t * pDst,
2748:Core/Inc/arm_math.h ****   uint32_t blockSize);
2749:Core/Inc/arm_math.h **** 
2750:Core/Inc/arm_math.h **** 
2751:Core/Inc/arm_math.h ****   /**
2752:Core/Inc/arm_math.h ****    * @brief  Adds a constant offset to a Q31 vector.
2753:Core/Inc/arm_math.h ****    * @param[in]  pSrc       points to the input vector
2754:Core/Inc/arm_math.h ****    * @param[in]  offset     is the offset to be added
2755:Core/Inc/arm_math.h ****    * @param[out] pDst       points to the output vector
2756:Core/Inc/arm_math.h ****    * @param[in]  blockSize  number of samples in the vector
2757:Core/Inc/arm_math.h ****    */
2758:Core/Inc/arm_math.h ****   void arm_offset_q31(
2759:Core/Inc/arm_math.h ****   q31_t * pSrc,
2760:Core/Inc/arm_math.h ****   q31_t offset,
2761:Core/Inc/arm_math.h ****   q31_t * pDst,
2762:Core/Inc/arm_math.h ****   uint32_t blockSize);
2763:Core/Inc/arm_math.h **** 
ARM GAS  /tmp/ccpEjOub.s 			page 53


2764:Core/Inc/arm_math.h **** 
2765:Core/Inc/arm_math.h ****   /**
2766:Core/Inc/arm_math.h ****    * @brief  Negates the elements of a floating-point vector.
2767:Core/Inc/arm_math.h ****    * @param[in]  pSrc       points to the input vector
2768:Core/Inc/arm_math.h ****    * @param[out] pDst       points to the output vector
2769:Core/Inc/arm_math.h ****    * @param[in]  blockSize  number of samples in the vector
2770:Core/Inc/arm_math.h ****    */
2771:Core/Inc/arm_math.h ****   void arm_negate_f32(
2772:Core/Inc/arm_math.h ****   float32_t * pSrc,
2773:Core/Inc/arm_math.h ****   float32_t * pDst,
2774:Core/Inc/arm_math.h ****   uint32_t blockSize);
2775:Core/Inc/arm_math.h **** 
2776:Core/Inc/arm_math.h **** 
2777:Core/Inc/arm_math.h ****   /**
2778:Core/Inc/arm_math.h ****    * @brief  Negates the elements of a Q7 vector.
2779:Core/Inc/arm_math.h ****    * @param[in]  pSrc       points to the input vector
2780:Core/Inc/arm_math.h ****    * @param[out] pDst       points to the output vector
2781:Core/Inc/arm_math.h ****    * @param[in]  blockSize  number of samples in the vector
2782:Core/Inc/arm_math.h ****    */
2783:Core/Inc/arm_math.h ****   void arm_negate_q7(
2784:Core/Inc/arm_math.h ****   q7_t * pSrc,
2785:Core/Inc/arm_math.h ****   q7_t * pDst,
2786:Core/Inc/arm_math.h ****   uint32_t blockSize);
2787:Core/Inc/arm_math.h **** 
2788:Core/Inc/arm_math.h **** 
2789:Core/Inc/arm_math.h ****   /**
2790:Core/Inc/arm_math.h ****    * @brief  Negates the elements of a Q15 vector.
2791:Core/Inc/arm_math.h ****    * @param[in]  pSrc       points to the input vector
2792:Core/Inc/arm_math.h ****    * @param[out] pDst       points to the output vector
2793:Core/Inc/arm_math.h ****    * @param[in]  blockSize  number of samples in the vector
2794:Core/Inc/arm_math.h ****    */
2795:Core/Inc/arm_math.h ****   void arm_negate_q15(
2796:Core/Inc/arm_math.h ****   q15_t * pSrc,
2797:Core/Inc/arm_math.h ****   q15_t * pDst,
2798:Core/Inc/arm_math.h ****   uint32_t blockSize);
2799:Core/Inc/arm_math.h **** 
2800:Core/Inc/arm_math.h **** 
2801:Core/Inc/arm_math.h ****   /**
2802:Core/Inc/arm_math.h ****    * @brief  Negates the elements of a Q31 vector.
2803:Core/Inc/arm_math.h ****    * @param[in]  pSrc       points to the input vector
2804:Core/Inc/arm_math.h ****    * @param[out] pDst       points to the output vector
2805:Core/Inc/arm_math.h ****    * @param[in]  blockSize  number of samples in the vector
2806:Core/Inc/arm_math.h ****    */
2807:Core/Inc/arm_math.h ****   void arm_negate_q31(
2808:Core/Inc/arm_math.h ****   q31_t * pSrc,
2809:Core/Inc/arm_math.h ****   q31_t * pDst,
2810:Core/Inc/arm_math.h ****   uint32_t blockSize);
2811:Core/Inc/arm_math.h **** 
2812:Core/Inc/arm_math.h **** 
2813:Core/Inc/arm_math.h ****   /**
2814:Core/Inc/arm_math.h ****    * @brief  Copies the elements of a floating-point vector.
2815:Core/Inc/arm_math.h ****    * @param[in]  pSrc       input pointer
2816:Core/Inc/arm_math.h ****    * @param[out] pDst       output pointer
2817:Core/Inc/arm_math.h ****    * @param[in]  blockSize  number of samples to process
2818:Core/Inc/arm_math.h ****    */
2819:Core/Inc/arm_math.h ****   void arm_copy_f32(
2820:Core/Inc/arm_math.h ****   float32_t * pSrc,
ARM GAS  /tmp/ccpEjOub.s 			page 54


2821:Core/Inc/arm_math.h ****   float32_t * pDst,
2822:Core/Inc/arm_math.h ****   uint32_t blockSize);
2823:Core/Inc/arm_math.h **** 
2824:Core/Inc/arm_math.h **** 
2825:Core/Inc/arm_math.h ****   /**
2826:Core/Inc/arm_math.h ****    * @brief  Copies the elements of a Q7 vector.
2827:Core/Inc/arm_math.h ****    * @param[in]  pSrc       input pointer
2828:Core/Inc/arm_math.h ****    * @param[out] pDst       output pointer
2829:Core/Inc/arm_math.h ****    * @param[in]  blockSize  number of samples to process
2830:Core/Inc/arm_math.h ****    */
2831:Core/Inc/arm_math.h ****   void arm_copy_q7(
2832:Core/Inc/arm_math.h ****   q7_t * pSrc,
2833:Core/Inc/arm_math.h ****   q7_t * pDst,
2834:Core/Inc/arm_math.h ****   uint32_t blockSize);
2835:Core/Inc/arm_math.h **** 
2836:Core/Inc/arm_math.h **** 
2837:Core/Inc/arm_math.h ****   /**
2838:Core/Inc/arm_math.h ****    * @brief  Copies the elements of a Q15 vector.
2839:Core/Inc/arm_math.h ****    * @param[in]  pSrc       input pointer
2840:Core/Inc/arm_math.h ****    * @param[out] pDst       output pointer
2841:Core/Inc/arm_math.h ****    * @param[in]  blockSize  number of samples to process
2842:Core/Inc/arm_math.h ****    */
2843:Core/Inc/arm_math.h ****   void arm_copy_q15(
2844:Core/Inc/arm_math.h ****   q15_t * pSrc,
2845:Core/Inc/arm_math.h ****   q15_t * pDst,
2846:Core/Inc/arm_math.h ****   uint32_t blockSize);
2847:Core/Inc/arm_math.h **** 
2848:Core/Inc/arm_math.h **** 
2849:Core/Inc/arm_math.h ****   /**
2850:Core/Inc/arm_math.h ****    * @brief  Copies the elements of a Q31 vector.
2851:Core/Inc/arm_math.h ****    * @param[in]  pSrc       input pointer
2852:Core/Inc/arm_math.h ****    * @param[out] pDst       output pointer
2853:Core/Inc/arm_math.h ****    * @param[in]  blockSize  number of samples to process
2854:Core/Inc/arm_math.h ****    */
2855:Core/Inc/arm_math.h ****   void arm_copy_q31(
2856:Core/Inc/arm_math.h ****   q31_t * pSrc,
2857:Core/Inc/arm_math.h ****   q31_t * pDst,
2858:Core/Inc/arm_math.h ****   uint32_t blockSize);
2859:Core/Inc/arm_math.h **** 
2860:Core/Inc/arm_math.h **** 
2861:Core/Inc/arm_math.h ****   /**
2862:Core/Inc/arm_math.h ****    * @brief  Fills a constant value into a floating-point vector.
2863:Core/Inc/arm_math.h ****    * @param[in]  value      input value to be filled
2864:Core/Inc/arm_math.h ****    * @param[out] pDst       output pointer
2865:Core/Inc/arm_math.h ****    * @param[in]  blockSize  number of samples to process
2866:Core/Inc/arm_math.h ****    */
2867:Core/Inc/arm_math.h ****   void arm_fill_f32(
2868:Core/Inc/arm_math.h ****   float32_t value,
2869:Core/Inc/arm_math.h ****   float32_t * pDst,
2870:Core/Inc/arm_math.h ****   uint32_t blockSize);
2871:Core/Inc/arm_math.h **** 
2872:Core/Inc/arm_math.h **** 
2873:Core/Inc/arm_math.h ****   /**
2874:Core/Inc/arm_math.h ****    * @brief  Fills a constant value into a Q7 vector.
2875:Core/Inc/arm_math.h ****    * @param[in]  value      input value to be filled
2876:Core/Inc/arm_math.h ****    * @param[out] pDst       output pointer
2877:Core/Inc/arm_math.h ****    * @param[in]  blockSize  number of samples to process
ARM GAS  /tmp/ccpEjOub.s 			page 55


2878:Core/Inc/arm_math.h ****    */
2879:Core/Inc/arm_math.h ****   void arm_fill_q7(
2880:Core/Inc/arm_math.h ****   q7_t value,
2881:Core/Inc/arm_math.h ****   q7_t * pDst,
2882:Core/Inc/arm_math.h ****   uint32_t blockSize);
2883:Core/Inc/arm_math.h **** 
2884:Core/Inc/arm_math.h **** 
2885:Core/Inc/arm_math.h ****   /**
2886:Core/Inc/arm_math.h ****    * @brief  Fills a constant value into a Q15 vector.
2887:Core/Inc/arm_math.h ****    * @param[in]  value      input value to be filled
2888:Core/Inc/arm_math.h ****    * @param[out] pDst       output pointer
2889:Core/Inc/arm_math.h ****    * @param[in]  blockSize  number of samples to process
2890:Core/Inc/arm_math.h ****    */
2891:Core/Inc/arm_math.h ****   void arm_fill_q15(
2892:Core/Inc/arm_math.h ****   q15_t value,
2893:Core/Inc/arm_math.h ****   q15_t * pDst,
2894:Core/Inc/arm_math.h ****   uint32_t blockSize);
2895:Core/Inc/arm_math.h **** 
2896:Core/Inc/arm_math.h **** 
2897:Core/Inc/arm_math.h ****   /**
2898:Core/Inc/arm_math.h ****    * @brief  Fills a constant value into a Q31 vector.
2899:Core/Inc/arm_math.h ****    * @param[in]  value      input value to be filled
2900:Core/Inc/arm_math.h ****    * @param[out] pDst       output pointer
2901:Core/Inc/arm_math.h ****    * @param[in]  blockSize  number of samples to process
2902:Core/Inc/arm_math.h ****    */
2903:Core/Inc/arm_math.h ****   void arm_fill_q31(
2904:Core/Inc/arm_math.h ****   q31_t value,
2905:Core/Inc/arm_math.h ****   q31_t * pDst,
2906:Core/Inc/arm_math.h ****   uint32_t blockSize);
2907:Core/Inc/arm_math.h **** 
2908:Core/Inc/arm_math.h **** 
2909:Core/Inc/arm_math.h **** /**
2910:Core/Inc/arm_math.h ****  * @brief Convolution of floating-point sequences.
2911:Core/Inc/arm_math.h ****  * @param[in]  pSrcA    points to the first input sequence.
2912:Core/Inc/arm_math.h ****  * @param[in]  srcALen  length of the first input sequence.
2913:Core/Inc/arm_math.h ****  * @param[in]  pSrcB    points to the second input sequence.
2914:Core/Inc/arm_math.h ****  * @param[in]  srcBLen  length of the second input sequence.
2915:Core/Inc/arm_math.h ****  * @param[out] pDst     points to the location where the output result is written.  Length srcALen+
2916:Core/Inc/arm_math.h ****  */
2917:Core/Inc/arm_math.h ****   void arm_conv_f32(
2918:Core/Inc/arm_math.h ****   float32_t * pSrcA,
2919:Core/Inc/arm_math.h ****   uint32_t srcALen,
2920:Core/Inc/arm_math.h ****   float32_t * pSrcB,
2921:Core/Inc/arm_math.h ****   uint32_t srcBLen,
2922:Core/Inc/arm_math.h ****   float32_t * pDst);
2923:Core/Inc/arm_math.h **** 
2924:Core/Inc/arm_math.h **** 
2925:Core/Inc/arm_math.h ****   /**
2926:Core/Inc/arm_math.h ****    * @brief Convolution of Q15 sequences.
2927:Core/Inc/arm_math.h ****    * @param[in]  pSrcA      points to the first input sequence.
2928:Core/Inc/arm_math.h ****    * @param[in]  srcALen    length of the first input sequence.
2929:Core/Inc/arm_math.h ****    * @param[in]  pSrcB      points to the second input sequence.
2930:Core/Inc/arm_math.h ****    * @param[in]  srcBLen    length of the second input sequence.
2931:Core/Inc/arm_math.h ****    * @param[out] pDst       points to the block of output data  Length srcALen+srcBLen-1.
2932:Core/Inc/arm_math.h ****    * @param[in]  pScratch1  points to scratch buffer of size max(srcALen, srcBLen) + 2*min(srcALen,
2933:Core/Inc/arm_math.h ****    * @param[in]  pScratch2  points to scratch buffer of size min(srcALen, srcBLen).
2934:Core/Inc/arm_math.h ****    */
ARM GAS  /tmp/ccpEjOub.s 			page 56


2935:Core/Inc/arm_math.h ****   void arm_conv_opt_q15(
2936:Core/Inc/arm_math.h ****   q15_t * pSrcA,
2937:Core/Inc/arm_math.h ****   uint32_t srcALen,
2938:Core/Inc/arm_math.h ****   q15_t * pSrcB,
2939:Core/Inc/arm_math.h ****   uint32_t srcBLen,
2940:Core/Inc/arm_math.h ****   q15_t * pDst,
2941:Core/Inc/arm_math.h ****   q15_t * pScratch1,
2942:Core/Inc/arm_math.h ****   q15_t * pScratch2);
2943:Core/Inc/arm_math.h **** 
2944:Core/Inc/arm_math.h **** 
2945:Core/Inc/arm_math.h **** /**
2946:Core/Inc/arm_math.h ****  * @brief Convolution of Q15 sequences.
2947:Core/Inc/arm_math.h ****  * @param[in]  pSrcA    points to the first input sequence.
2948:Core/Inc/arm_math.h ****  * @param[in]  srcALen  length of the first input sequence.
2949:Core/Inc/arm_math.h ****  * @param[in]  pSrcB    points to the second input sequence.
2950:Core/Inc/arm_math.h ****  * @param[in]  srcBLen  length of the second input sequence.
2951:Core/Inc/arm_math.h ****  * @param[out] pDst     points to the location where the output result is written.  Length srcALen+
2952:Core/Inc/arm_math.h ****  */
2953:Core/Inc/arm_math.h ****   void arm_conv_q15(
2954:Core/Inc/arm_math.h ****   q15_t * pSrcA,
2955:Core/Inc/arm_math.h ****   uint32_t srcALen,
2956:Core/Inc/arm_math.h ****   q15_t * pSrcB,
2957:Core/Inc/arm_math.h ****   uint32_t srcBLen,
2958:Core/Inc/arm_math.h ****   q15_t * pDst);
2959:Core/Inc/arm_math.h **** 
2960:Core/Inc/arm_math.h **** 
2961:Core/Inc/arm_math.h ****   /**
2962:Core/Inc/arm_math.h ****    * @brief Convolution of Q15 sequences (fast version) for Cortex-M3 and Cortex-M4
2963:Core/Inc/arm_math.h ****    * @param[in]  pSrcA    points to the first input sequence.
2964:Core/Inc/arm_math.h ****    * @param[in]  srcALen  length of the first input sequence.
2965:Core/Inc/arm_math.h ****    * @param[in]  pSrcB    points to the second input sequence.
2966:Core/Inc/arm_math.h ****    * @param[in]  srcBLen  length of the second input sequence.
2967:Core/Inc/arm_math.h ****    * @param[out] pDst     points to the block of output data  Length srcALen+srcBLen-1.
2968:Core/Inc/arm_math.h ****    */
2969:Core/Inc/arm_math.h ****   void arm_conv_fast_q15(
2970:Core/Inc/arm_math.h ****           q15_t * pSrcA,
2971:Core/Inc/arm_math.h ****           uint32_t srcALen,
2972:Core/Inc/arm_math.h ****           q15_t * pSrcB,
2973:Core/Inc/arm_math.h ****           uint32_t srcBLen,
2974:Core/Inc/arm_math.h ****           q15_t * pDst);
2975:Core/Inc/arm_math.h **** 
2976:Core/Inc/arm_math.h **** 
2977:Core/Inc/arm_math.h ****   /**
2978:Core/Inc/arm_math.h ****    * @brief Convolution of Q15 sequences (fast version) for Cortex-M3 and Cortex-M4
2979:Core/Inc/arm_math.h ****    * @param[in]  pSrcA      points to the first input sequence.
2980:Core/Inc/arm_math.h ****    * @param[in]  srcALen    length of the first input sequence.
2981:Core/Inc/arm_math.h ****    * @param[in]  pSrcB      points to the second input sequence.
2982:Core/Inc/arm_math.h ****    * @param[in]  srcBLen    length of the second input sequence.
2983:Core/Inc/arm_math.h ****    * @param[out] pDst       points to the block of output data  Length srcALen+srcBLen-1.
2984:Core/Inc/arm_math.h ****    * @param[in]  pScratch1  points to scratch buffer of size max(srcALen, srcBLen) + 2*min(srcALen,
2985:Core/Inc/arm_math.h ****    * @param[in]  pScratch2  points to scratch buffer of size min(srcALen, srcBLen).
2986:Core/Inc/arm_math.h ****    */
2987:Core/Inc/arm_math.h ****   void arm_conv_fast_opt_q15(
2988:Core/Inc/arm_math.h ****   q15_t * pSrcA,
2989:Core/Inc/arm_math.h ****   uint32_t srcALen,
2990:Core/Inc/arm_math.h ****   q15_t * pSrcB,
2991:Core/Inc/arm_math.h ****   uint32_t srcBLen,
ARM GAS  /tmp/ccpEjOub.s 			page 57


2992:Core/Inc/arm_math.h ****   q15_t * pDst,
2993:Core/Inc/arm_math.h ****   q15_t * pScratch1,
2994:Core/Inc/arm_math.h ****   q15_t * pScratch2);
2995:Core/Inc/arm_math.h **** 
2996:Core/Inc/arm_math.h **** 
2997:Core/Inc/arm_math.h ****   /**
2998:Core/Inc/arm_math.h ****    * @brief Convolution of Q31 sequences.
2999:Core/Inc/arm_math.h ****    * @param[in]  pSrcA    points to the first input sequence.
3000:Core/Inc/arm_math.h ****    * @param[in]  srcALen  length of the first input sequence.
3001:Core/Inc/arm_math.h ****    * @param[in]  pSrcB    points to the second input sequence.
3002:Core/Inc/arm_math.h ****    * @param[in]  srcBLen  length of the second input sequence.
3003:Core/Inc/arm_math.h ****    * @param[out] pDst     points to the block of output data  Length srcALen+srcBLen-1.
3004:Core/Inc/arm_math.h ****    */
3005:Core/Inc/arm_math.h ****   void arm_conv_q31(
3006:Core/Inc/arm_math.h ****   q31_t * pSrcA,
3007:Core/Inc/arm_math.h ****   uint32_t srcALen,
3008:Core/Inc/arm_math.h ****   q31_t * pSrcB,
3009:Core/Inc/arm_math.h ****   uint32_t srcBLen,
3010:Core/Inc/arm_math.h ****   q31_t * pDst);
3011:Core/Inc/arm_math.h **** 
3012:Core/Inc/arm_math.h **** 
3013:Core/Inc/arm_math.h ****   /**
3014:Core/Inc/arm_math.h ****    * @brief Convolution of Q31 sequences (fast version) for Cortex-M3 and Cortex-M4
3015:Core/Inc/arm_math.h ****    * @param[in]  pSrcA    points to the first input sequence.
3016:Core/Inc/arm_math.h ****    * @param[in]  srcALen  length of the first input sequence.
3017:Core/Inc/arm_math.h ****    * @param[in]  pSrcB    points to the second input sequence.
3018:Core/Inc/arm_math.h ****    * @param[in]  srcBLen  length of the second input sequence.
3019:Core/Inc/arm_math.h ****    * @param[out] pDst     points to the block of output data  Length srcALen+srcBLen-1.
3020:Core/Inc/arm_math.h ****    */
3021:Core/Inc/arm_math.h ****   void arm_conv_fast_q31(
3022:Core/Inc/arm_math.h ****   q31_t * pSrcA,
3023:Core/Inc/arm_math.h ****   uint32_t srcALen,
3024:Core/Inc/arm_math.h ****   q31_t * pSrcB,
3025:Core/Inc/arm_math.h ****   uint32_t srcBLen,
3026:Core/Inc/arm_math.h ****   q31_t * pDst);
3027:Core/Inc/arm_math.h **** 
3028:Core/Inc/arm_math.h **** 
3029:Core/Inc/arm_math.h ****     /**
3030:Core/Inc/arm_math.h ****    * @brief Convolution of Q7 sequences.
3031:Core/Inc/arm_math.h ****    * @param[in]  pSrcA      points to the first input sequence.
3032:Core/Inc/arm_math.h ****    * @param[in]  srcALen    length of the first input sequence.
3033:Core/Inc/arm_math.h ****    * @param[in]  pSrcB      points to the second input sequence.
3034:Core/Inc/arm_math.h ****    * @param[in]  srcBLen    length of the second input sequence.
3035:Core/Inc/arm_math.h ****    * @param[out] pDst       points to the block of output data  Length srcALen+srcBLen-1.
3036:Core/Inc/arm_math.h ****    * @param[in]  pScratch1  points to scratch buffer(of type q15_t) of size max(srcALen, srcBLen) +
3037:Core/Inc/arm_math.h ****    * @param[in]  pScratch2  points to scratch buffer (of type q15_t) of size min(srcALen, srcBLen).
3038:Core/Inc/arm_math.h ****    */
3039:Core/Inc/arm_math.h ****   void arm_conv_opt_q7(
3040:Core/Inc/arm_math.h ****   q7_t * pSrcA,
3041:Core/Inc/arm_math.h ****   uint32_t srcALen,
3042:Core/Inc/arm_math.h ****   q7_t * pSrcB,
3043:Core/Inc/arm_math.h ****   uint32_t srcBLen,
3044:Core/Inc/arm_math.h ****   q7_t * pDst,
3045:Core/Inc/arm_math.h ****   q15_t * pScratch1,
3046:Core/Inc/arm_math.h ****   q15_t * pScratch2);
3047:Core/Inc/arm_math.h **** 
3048:Core/Inc/arm_math.h **** 
ARM GAS  /tmp/ccpEjOub.s 			page 58


3049:Core/Inc/arm_math.h ****   /**
3050:Core/Inc/arm_math.h ****    * @brief Convolution of Q7 sequences.
3051:Core/Inc/arm_math.h ****    * @param[in]  pSrcA    points to the first input sequence.
3052:Core/Inc/arm_math.h ****    * @param[in]  srcALen  length of the first input sequence.
3053:Core/Inc/arm_math.h ****    * @param[in]  pSrcB    points to the second input sequence.
3054:Core/Inc/arm_math.h ****    * @param[in]  srcBLen  length of the second input sequence.
3055:Core/Inc/arm_math.h ****    * @param[out] pDst     points to the block of output data  Length srcALen+srcBLen-1.
3056:Core/Inc/arm_math.h ****    */
3057:Core/Inc/arm_math.h ****   void arm_conv_q7(
3058:Core/Inc/arm_math.h ****   q7_t * pSrcA,
3059:Core/Inc/arm_math.h ****   uint32_t srcALen,
3060:Core/Inc/arm_math.h ****   q7_t * pSrcB,
3061:Core/Inc/arm_math.h ****   uint32_t srcBLen,
3062:Core/Inc/arm_math.h ****   q7_t * pDst);
3063:Core/Inc/arm_math.h **** 
3064:Core/Inc/arm_math.h **** 
3065:Core/Inc/arm_math.h ****   /**
3066:Core/Inc/arm_math.h ****    * @brief Partial convolution of floating-point sequences.
3067:Core/Inc/arm_math.h ****    * @param[in]  pSrcA       points to the first input sequence.
3068:Core/Inc/arm_math.h ****    * @param[in]  srcALen     length of the first input sequence.
3069:Core/Inc/arm_math.h ****    * @param[in]  pSrcB       points to the second input sequence.
3070:Core/Inc/arm_math.h ****    * @param[in]  srcBLen     length of the second input sequence.
3071:Core/Inc/arm_math.h ****    * @param[out] pDst        points to the block of output data
3072:Core/Inc/arm_math.h ****    * @param[in]  firstIndex  is the first output sample to start with.
3073:Core/Inc/arm_math.h ****    * @param[in]  numPoints   is the number of output points to be computed.
3074:Core/Inc/arm_math.h ****    * @return  Returns either ARM_MATH_SUCCESS if the function completed correctly or ARM_MATH_ARGUM
3075:Core/Inc/arm_math.h ****    */
3076:Core/Inc/arm_math.h ****   arm_status arm_conv_partial_f32(
3077:Core/Inc/arm_math.h ****   float32_t * pSrcA,
3078:Core/Inc/arm_math.h ****   uint32_t srcALen,
3079:Core/Inc/arm_math.h ****   float32_t * pSrcB,
3080:Core/Inc/arm_math.h ****   uint32_t srcBLen,
3081:Core/Inc/arm_math.h ****   float32_t * pDst,
3082:Core/Inc/arm_math.h ****   uint32_t firstIndex,
3083:Core/Inc/arm_math.h ****   uint32_t numPoints);
3084:Core/Inc/arm_math.h **** 
3085:Core/Inc/arm_math.h **** 
3086:Core/Inc/arm_math.h ****   /**
3087:Core/Inc/arm_math.h ****    * @brief Partial convolution of Q15 sequences.
3088:Core/Inc/arm_math.h ****    * @param[in]  pSrcA       points to the first input sequence.
3089:Core/Inc/arm_math.h ****    * @param[in]  srcALen     length of the first input sequence.
3090:Core/Inc/arm_math.h ****    * @param[in]  pSrcB       points to the second input sequence.
3091:Core/Inc/arm_math.h ****    * @param[in]  srcBLen     length of the second input sequence.
3092:Core/Inc/arm_math.h ****    * @param[out] pDst        points to the block of output data
3093:Core/Inc/arm_math.h ****    * @param[in]  firstIndex  is the first output sample to start with.
3094:Core/Inc/arm_math.h ****    * @param[in]  numPoints   is the number of output points to be computed.
3095:Core/Inc/arm_math.h ****    * @param[in]  pScratch1   points to scratch buffer of size max(srcALen, srcBLen) + 2*min(srcALen
3096:Core/Inc/arm_math.h ****    * @param[in]  pScratch2   points to scratch buffer of size min(srcALen, srcBLen).
3097:Core/Inc/arm_math.h ****    * @return  Returns either ARM_MATH_SUCCESS if the function completed correctly or ARM_MATH_ARGUM
3098:Core/Inc/arm_math.h ****    */
3099:Core/Inc/arm_math.h ****   arm_status arm_conv_partial_opt_q15(
3100:Core/Inc/arm_math.h ****   q15_t * pSrcA,
3101:Core/Inc/arm_math.h ****   uint32_t srcALen,
3102:Core/Inc/arm_math.h ****   q15_t * pSrcB,
3103:Core/Inc/arm_math.h ****   uint32_t srcBLen,
3104:Core/Inc/arm_math.h ****   q15_t * pDst,
3105:Core/Inc/arm_math.h ****   uint32_t firstIndex,
ARM GAS  /tmp/ccpEjOub.s 			page 59


3106:Core/Inc/arm_math.h ****   uint32_t numPoints,
3107:Core/Inc/arm_math.h ****   q15_t * pScratch1,
3108:Core/Inc/arm_math.h ****   q15_t * pScratch2);
3109:Core/Inc/arm_math.h **** 
3110:Core/Inc/arm_math.h **** 
3111:Core/Inc/arm_math.h ****   /**
3112:Core/Inc/arm_math.h ****    * @brief Partial convolution of Q15 sequences.
3113:Core/Inc/arm_math.h ****    * @param[in]  pSrcA       points to the first input sequence.
3114:Core/Inc/arm_math.h ****    * @param[in]  srcALen     length of the first input sequence.
3115:Core/Inc/arm_math.h ****    * @param[in]  pSrcB       points to the second input sequence.
3116:Core/Inc/arm_math.h ****    * @param[in]  srcBLen     length of the second input sequence.
3117:Core/Inc/arm_math.h ****    * @param[out] pDst        points to the block of output data
3118:Core/Inc/arm_math.h ****    * @param[in]  firstIndex  is the first output sample to start with.
3119:Core/Inc/arm_math.h ****    * @param[in]  numPoints   is the number of output points to be computed.
3120:Core/Inc/arm_math.h ****    * @return  Returns either ARM_MATH_SUCCESS if the function completed correctly or ARM_MATH_ARGUM
3121:Core/Inc/arm_math.h ****    */
3122:Core/Inc/arm_math.h ****   arm_status arm_conv_partial_q15(
3123:Core/Inc/arm_math.h ****   q15_t * pSrcA,
3124:Core/Inc/arm_math.h ****   uint32_t srcALen,
3125:Core/Inc/arm_math.h ****   q15_t * pSrcB,
3126:Core/Inc/arm_math.h ****   uint32_t srcBLen,
3127:Core/Inc/arm_math.h ****   q15_t * pDst,
3128:Core/Inc/arm_math.h ****   uint32_t firstIndex,
3129:Core/Inc/arm_math.h ****   uint32_t numPoints);
3130:Core/Inc/arm_math.h **** 
3131:Core/Inc/arm_math.h **** 
3132:Core/Inc/arm_math.h ****   /**
3133:Core/Inc/arm_math.h ****    * @brief Partial convolution of Q15 sequences (fast version) for Cortex-M3 and Cortex-M4
3134:Core/Inc/arm_math.h ****    * @param[in]  pSrcA       points to the first input sequence.
3135:Core/Inc/arm_math.h ****    * @param[in]  srcALen     length of the first input sequence.
3136:Core/Inc/arm_math.h ****    * @param[in]  pSrcB       points to the second input sequence.
3137:Core/Inc/arm_math.h ****    * @param[in]  srcBLen     length of the second input sequence.
3138:Core/Inc/arm_math.h ****    * @param[out] pDst        points to the block of output data
3139:Core/Inc/arm_math.h ****    * @param[in]  firstIndex  is the first output sample to start with.
3140:Core/Inc/arm_math.h ****    * @param[in]  numPoints   is the number of output points to be computed.
3141:Core/Inc/arm_math.h ****    * @return  Returns either ARM_MATH_SUCCESS if the function completed correctly or ARM_MATH_ARGUM
3142:Core/Inc/arm_math.h ****    */
3143:Core/Inc/arm_math.h ****   arm_status arm_conv_partial_fast_q15(
3144:Core/Inc/arm_math.h ****   q15_t * pSrcA,
3145:Core/Inc/arm_math.h ****   uint32_t srcALen,
3146:Core/Inc/arm_math.h ****   q15_t * pSrcB,
3147:Core/Inc/arm_math.h ****   uint32_t srcBLen,
3148:Core/Inc/arm_math.h ****   q15_t * pDst,
3149:Core/Inc/arm_math.h ****   uint32_t firstIndex,
3150:Core/Inc/arm_math.h ****   uint32_t numPoints);
3151:Core/Inc/arm_math.h **** 
3152:Core/Inc/arm_math.h **** 
3153:Core/Inc/arm_math.h ****   /**
3154:Core/Inc/arm_math.h ****    * @brief Partial convolution of Q15 sequences (fast version) for Cortex-M3 and Cortex-M4
3155:Core/Inc/arm_math.h ****    * @param[in]  pSrcA       points to the first input sequence.
3156:Core/Inc/arm_math.h ****    * @param[in]  srcALen     length of the first input sequence.
3157:Core/Inc/arm_math.h ****    * @param[in]  pSrcB       points to the second input sequence.
3158:Core/Inc/arm_math.h ****    * @param[in]  srcBLen     length of the second input sequence.
3159:Core/Inc/arm_math.h ****    * @param[out] pDst        points to the block of output data
3160:Core/Inc/arm_math.h ****    * @param[in]  firstIndex  is the first output sample to start with.
3161:Core/Inc/arm_math.h ****    * @param[in]  numPoints   is the number of output points to be computed.
3162:Core/Inc/arm_math.h ****    * @param[in]  pScratch1   points to scratch buffer of size max(srcALen, srcBLen) + 2*min(srcALen
ARM GAS  /tmp/ccpEjOub.s 			page 60


3163:Core/Inc/arm_math.h ****    * @param[in]  pScratch2   points to scratch buffer of size min(srcALen, srcBLen).
3164:Core/Inc/arm_math.h ****    * @return  Returns either ARM_MATH_SUCCESS if the function completed correctly or ARM_MATH_ARGUM
3165:Core/Inc/arm_math.h ****    */
3166:Core/Inc/arm_math.h ****   arm_status arm_conv_partial_fast_opt_q15(
3167:Core/Inc/arm_math.h ****   q15_t * pSrcA,
3168:Core/Inc/arm_math.h ****   uint32_t srcALen,
3169:Core/Inc/arm_math.h ****   q15_t * pSrcB,
3170:Core/Inc/arm_math.h ****   uint32_t srcBLen,
3171:Core/Inc/arm_math.h ****   q15_t * pDst,
3172:Core/Inc/arm_math.h ****   uint32_t firstIndex,
3173:Core/Inc/arm_math.h ****   uint32_t numPoints,
3174:Core/Inc/arm_math.h ****   q15_t * pScratch1,
3175:Core/Inc/arm_math.h ****   q15_t * pScratch2);
3176:Core/Inc/arm_math.h **** 
3177:Core/Inc/arm_math.h **** 
3178:Core/Inc/arm_math.h ****   /**
3179:Core/Inc/arm_math.h ****    * @brief Partial convolution of Q31 sequences.
3180:Core/Inc/arm_math.h ****    * @param[in]  pSrcA       points to the first input sequence.
3181:Core/Inc/arm_math.h ****    * @param[in]  srcALen     length of the first input sequence.
3182:Core/Inc/arm_math.h ****    * @param[in]  pSrcB       points to the second input sequence.
3183:Core/Inc/arm_math.h ****    * @param[in]  srcBLen     length of the second input sequence.
3184:Core/Inc/arm_math.h ****    * @param[out] pDst        points to the block of output data
3185:Core/Inc/arm_math.h ****    * @param[in]  firstIndex  is the first output sample to start with.
3186:Core/Inc/arm_math.h ****    * @param[in]  numPoints   is the number of output points to be computed.
3187:Core/Inc/arm_math.h ****    * @return  Returns either ARM_MATH_SUCCESS if the function completed correctly or ARM_MATH_ARGUM
3188:Core/Inc/arm_math.h ****    */
3189:Core/Inc/arm_math.h ****   arm_status arm_conv_partial_q31(
3190:Core/Inc/arm_math.h ****   q31_t * pSrcA,
3191:Core/Inc/arm_math.h ****   uint32_t srcALen,
3192:Core/Inc/arm_math.h ****   q31_t * pSrcB,
3193:Core/Inc/arm_math.h ****   uint32_t srcBLen,
3194:Core/Inc/arm_math.h ****   q31_t * pDst,
3195:Core/Inc/arm_math.h ****   uint32_t firstIndex,
3196:Core/Inc/arm_math.h ****   uint32_t numPoints);
3197:Core/Inc/arm_math.h **** 
3198:Core/Inc/arm_math.h **** 
3199:Core/Inc/arm_math.h ****   /**
3200:Core/Inc/arm_math.h ****    * @brief Partial convolution of Q31 sequences (fast version) for Cortex-M3 and Cortex-M4
3201:Core/Inc/arm_math.h ****    * @param[in]  pSrcA       points to the first input sequence.
3202:Core/Inc/arm_math.h ****    * @param[in]  srcALen     length of the first input sequence.
3203:Core/Inc/arm_math.h ****    * @param[in]  pSrcB       points to the second input sequence.
3204:Core/Inc/arm_math.h ****    * @param[in]  srcBLen     length of the second input sequence.
3205:Core/Inc/arm_math.h ****    * @param[out] pDst        points to the block of output data
3206:Core/Inc/arm_math.h ****    * @param[in]  firstIndex  is the first output sample to start with.
3207:Core/Inc/arm_math.h ****    * @param[in]  numPoints   is the number of output points to be computed.
3208:Core/Inc/arm_math.h ****    * @return  Returns either ARM_MATH_SUCCESS if the function completed correctly or ARM_MATH_ARGUM
3209:Core/Inc/arm_math.h ****    */
3210:Core/Inc/arm_math.h ****   arm_status arm_conv_partial_fast_q31(
3211:Core/Inc/arm_math.h ****   q31_t * pSrcA,
3212:Core/Inc/arm_math.h ****   uint32_t srcALen,
3213:Core/Inc/arm_math.h ****   q31_t * pSrcB,
3214:Core/Inc/arm_math.h ****   uint32_t srcBLen,
3215:Core/Inc/arm_math.h ****   q31_t * pDst,
3216:Core/Inc/arm_math.h ****   uint32_t firstIndex,
3217:Core/Inc/arm_math.h ****   uint32_t numPoints);
3218:Core/Inc/arm_math.h **** 
3219:Core/Inc/arm_math.h **** 
ARM GAS  /tmp/ccpEjOub.s 			page 61


3220:Core/Inc/arm_math.h ****   /**
3221:Core/Inc/arm_math.h ****    * @brief Partial convolution of Q7 sequences
3222:Core/Inc/arm_math.h ****    * @param[in]  pSrcA       points to the first input sequence.
3223:Core/Inc/arm_math.h ****    * @param[in]  srcALen     length of the first input sequence.
3224:Core/Inc/arm_math.h ****    * @param[in]  pSrcB       points to the second input sequence.
3225:Core/Inc/arm_math.h ****    * @param[in]  srcBLen     length of the second input sequence.
3226:Core/Inc/arm_math.h ****    * @param[out] pDst        points to the block of output data
3227:Core/Inc/arm_math.h ****    * @param[in]  firstIndex  is the first output sample to start with.
3228:Core/Inc/arm_math.h ****    * @param[in]  numPoints   is the number of output points to be computed.
3229:Core/Inc/arm_math.h ****    * @param[in]  pScratch1   points to scratch buffer(of type q15_t) of size max(srcALen, srcBLen) 
3230:Core/Inc/arm_math.h ****    * @param[in]  pScratch2   points to scratch buffer (of type q15_t) of size min(srcALen, srcBLen)
3231:Core/Inc/arm_math.h ****    * @return  Returns either ARM_MATH_SUCCESS if the function completed correctly or ARM_MATH_ARGUM
3232:Core/Inc/arm_math.h ****    */
3233:Core/Inc/arm_math.h ****   arm_status arm_conv_partial_opt_q7(
3234:Core/Inc/arm_math.h ****   q7_t * pSrcA,
3235:Core/Inc/arm_math.h ****   uint32_t srcALen,
3236:Core/Inc/arm_math.h ****   q7_t * pSrcB,
3237:Core/Inc/arm_math.h ****   uint32_t srcBLen,
3238:Core/Inc/arm_math.h ****   q7_t * pDst,
3239:Core/Inc/arm_math.h ****   uint32_t firstIndex,
3240:Core/Inc/arm_math.h ****   uint32_t numPoints,
3241:Core/Inc/arm_math.h ****   q15_t * pScratch1,
3242:Core/Inc/arm_math.h ****   q15_t * pScratch2);
3243:Core/Inc/arm_math.h **** 
3244:Core/Inc/arm_math.h **** 
3245:Core/Inc/arm_math.h **** /**
3246:Core/Inc/arm_math.h ****    * @brief Partial convolution of Q7 sequences.
3247:Core/Inc/arm_math.h ****    * @param[in]  pSrcA       points to the first input sequence.
3248:Core/Inc/arm_math.h ****    * @param[in]  srcALen     length of the first input sequence.
3249:Core/Inc/arm_math.h ****    * @param[in]  pSrcB       points to the second input sequence.
3250:Core/Inc/arm_math.h ****    * @param[in]  srcBLen     length of the second input sequence.
3251:Core/Inc/arm_math.h ****    * @param[out] pDst        points to the block of output data
3252:Core/Inc/arm_math.h ****    * @param[in]  firstIndex  is the first output sample to start with.
3253:Core/Inc/arm_math.h ****    * @param[in]  numPoints   is the number of output points to be computed.
3254:Core/Inc/arm_math.h ****    * @return  Returns either ARM_MATH_SUCCESS if the function completed correctly or ARM_MATH_ARGUM
3255:Core/Inc/arm_math.h ****    */
3256:Core/Inc/arm_math.h ****   arm_status arm_conv_partial_q7(
3257:Core/Inc/arm_math.h ****   q7_t * pSrcA,
3258:Core/Inc/arm_math.h ****   uint32_t srcALen,
3259:Core/Inc/arm_math.h ****   q7_t * pSrcB,
3260:Core/Inc/arm_math.h ****   uint32_t srcBLen,
3261:Core/Inc/arm_math.h ****   q7_t * pDst,
3262:Core/Inc/arm_math.h ****   uint32_t firstIndex,
3263:Core/Inc/arm_math.h ****   uint32_t numPoints);
3264:Core/Inc/arm_math.h **** 
3265:Core/Inc/arm_math.h **** 
3266:Core/Inc/arm_math.h ****   /**
3267:Core/Inc/arm_math.h ****    * @brief Instance structure for the Q15 FIR decimator.
3268:Core/Inc/arm_math.h ****    */
3269:Core/Inc/arm_math.h ****   typedef struct
3270:Core/Inc/arm_math.h ****   {
3271:Core/Inc/arm_math.h ****     uint8_t M;                  /**< decimation factor. */
3272:Core/Inc/arm_math.h ****     uint16_t numTaps;           /**< number of coefficients in the filter. */
3273:Core/Inc/arm_math.h ****     q15_t *pCoeffs;             /**< points to the coefficient array. The array is of length numTap
3274:Core/Inc/arm_math.h ****     q15_t *pState;              /**< points to the state variable array. The array is of length num
3275:Core/Inc/arm_math.h ****   } arm_fir_decimate_instance_q15;
3276:Core/Inc/arm_math.h **** 
ARM GAS  /tmp/ccpEjOub.s 			page 62


3277:Core/Inc/arm_math.h ****   /**
3278:Core/Inc/arm_math.h ****    * @brief Instance structure for the Q31 FIR decimator.
3279:Core/Inc/arm_math.h ****    */
3280:Core/Inc/arm_math.h ****   typedef struct
3281:Core/Inc/arm_math.h ****   {
3282:Core/Inc/arm_math.h ****     uint8_t M;                  /**< decimation factor. */
3283:Core/Inc/arm_math.h ****     uint16_t numTaps;           /**< number of coefficients in the filter. */
3284:Core/Inc/arm_math.h ****     q31_t *pCoeffs;             /**< points to the coefficient array. The array is of length numTap
3285:Core/Inc/arm_math.h ****     q31_t *pState;              /**< points to the state variable array. The array is of length num
3286:Core/Inc/arm_math.h ****   } arm_fir_decimate_instance_q31;
3287:Core/Inc/arm_math.h **** 
3288:Core/Inc/arm_math.h ****   /**
3289:Core/Inc/arm_math.h ****    * @brief Instance structure for the floating-point FIR decimator.
3290:Core/Inc/arm_math.h ****    */
3291:Core/Inc/arm_math.h ****   typedef struct
3292:Core/Inc/arm_math.h ****   {
3293:Core/Inc/arm_math.h ****     uint8_t M;                  /**< decimation factor. */
3294:Core/Inc/arm_math.h ****     uint16_t numTaps;           /**< number of coefficients in the filter. */
3295:Core/Inc/arm_math.h ****     float32_t *pCoeffs;         /**< points to the coefficient array. The array is of length numTap
3296:Core/Inc/arm_math.h ****     float32_t *pState;          /**< points to the state variable array. The array is of length num
3297:Core/Inc/arm_math.h ****   } arm_fir_decimate_instance_f32;
3298:Core/Inc/arm_math.h **** 
3299:Core/Inc/arm_math.h **** 
3300:Core/Inc/arm_math.h ****   /**
3301:Core/Inc/arm_math.h ****    * @brief Processing function for the floating-point FIR decimator.
3302:Core/Inc/arm_math.h ****    * @param[in]  S          points to an instance of the floating-point FIR decimator structure.
3303:Core/Inc/arm_math.h ****    * @param[in]  pSrc       points to the block of input data.
3304:Core/Inc/arm_math.h ****    * @param[out] pDst       points to the block of output data
3305:Core/Inc/arm_math.h ****    * @param[in]  blockSize  number of input samples to process per call.
3306:Core/Inc/arm_math.h ****    */
3307:Core/Inc/arm_math.h ****   void arm_fir_decimate_f32(
3308:Core/Inc/arm_math.h ****   const arm_fir_decimate_instance_f32 * S,
3309:Core/Inc/arm_math.h ****   float32_t * pSrc,
3310:Core/Inc/arm_math.h ****   float32_t * pDst,
3311:Core/Inc/arm_math.h ****   uint32_t blockSize);
3312:Core/Inc/arm_math.h **** 
3313:Core/Inc/arm_math.h **** 
3314:Core/Inc/arm_math.h ****   /**
3315:Core/Inc/arm_math.h ****    * @brief  Initialization function for the floating-point FIR decimator.
3316:Core/Inc/arm_math.h ****    * @param[in,out] S          points to an instance of the floating-point FIR decimator structure.
3317:Core/Inc/arm_math.h ****    * @param[in]     numTaps    number of coefficients in the filter.
3318:Core/Inc/arm_math.h ****    * @param[in]     M          decimation factor.
3319:Core/Inc/arm_math.h ****    * @param[in]     pCoeffs    points to the filter coefficients.
3320:Core/Inc/arm_math.h ****    * @param[in]     pState     points to the state buffer.
3321:Core/Inc/arm_math.h ****    * @param[in]     blockSize  number of input samples to process per call.
3322:Core/Inc/arm_math.h ****    * @return    The function returns ARM_MATH_SUCCESS if initialization is successful or ARM_MATH_L
3323:Core/Inc/arm_math.h ****    * <code>blockSize</code> is not a multiple of <code>M</code>.
3324:Core/Inc/arm_math.h ****    */
3325:Core/Inc/arm_math.h ****   arm_status arm_fir_decimate_init_f32(
3326:Core/Inc/arm_math.h ****   arm_fir_decimate_instance_f32 * S,
3327:Core/Inc/arm_math.h ****   uint16_t numTaps,
3328:Core/Inc/arm_math.h ****   uint8_t M,
3329:Core/Inc/arm_math.h ****   float32_t * pCoeffs,
3330:Core/Inc/arm_math.h ****   float32_t * pState,
3331:Core/Inc/arm_math.h ****   uint32_t blockSize);
3332:Core/Inc/arm_math.h **** 
3333:Core/Inc/arm_math.h **** 
ARM GAS  /tmp/ccpEjOub.s 			page 63


3334:Core/Inc/arm_math.h ****   /**
3335:Core/Inc/arm_math.h ****    * @brief Processing function for the Q15 FIR decimator.
3336:Core/Inc/arm_math.h ****    * @param[in]  S          points to an instance of the Q15 FIR decimator structure.
3337:Core/Inc/arm_math.h ****    * @param[in]  pSrc       points to the block of input data.
3338:Core/Inc/arm_math.h ****    * @param[out] pDst       points to the block of output data
3339:Core/Inc/arm_math.h ****    * @param[in]  blockSize  number of input samples to process per call.
3340:Core/Inc/arm_math.h ****    */
3341:Core/Inc/arm_math.h ****   void arm_fir_decimate_q15(
3342:Core/Inc/arm_math.h ****   const arm_fir_decimate_instance_q15 * S,
3343:Core/Inc/arm_math.h ****   q15_t * pSrc,
3344:Core/Inc/arm_math.h ****   q15_t * pDst,
3345:Core/Inc/arm_math.h ****   uint32_t blockSize);
3346:Core/Inc/arm_math.h **** 
3347:Core/Inc/arm_math.h **** 
3348:Core/Inc/arm_math.h ****   /**
3349:Core/Inc/arm_math.h ****    * @brief Processing function for the Q15 FIR decimator (fast variant) for Cortex-M3 and Cortex-M
3350:Core/Inc/arm_math.h ****    * @param[in]  S          points to an instance of the Q15 FIR decimator structure.
3351:Core/Inc/arm_math.h ****    * @param[in]  pSrc       points to the block of input data.
3352:Core/Inc/arm_math.h ****    * @param[out] pDst       points to the block of output data
3353:Core/Inc/arm_math.h ****    * @param[in]  blockSize  number of input samples to process per call.
3354:Core/Inc/arm_math.h ****    */
3355:Core/Inc/arm_math.h ****   void arm_fir_decimate_fast_q15(
3356:Core/Inc/arm_math.h ****   const arm_fir_decimate_instance_q15 * S,
3357:Core/Inc/arm_math.h ****   q15_t * pSrc,
3358:Core/Inc/arm_math.h ****   q15_t * pDst,
3359:Core/Inc/arm_math.h ****   uint32_t blockSize);
3360:Core/Inc/arm_math.h **** 
3361:Core/Inc/arm_math.h **** 
3362:Core/Inc/arm_math.h ****   /**
3363:Core/Inc/arm_math.h ****    * @brief  Initialization function for the Q15 FIR decimator.
3364:Core/Inc/arm_math.h ****    * @param[in,out] S          points to an instance of the Q15 FIR decimator structure.
3365:Core/Inc/arm_math.h ****    * @param[in]     numTaps    number of coefficients in the filter.
3366:Core/Inc/arm_math.h ****    * @param[in]     M          decimation factor.
3367:Core/Inc/arm_math.h ****    * @param[in]     pCoeffs    points to the filter coefficients.
3368:Core/Inc/arm_math.h ****    * @param[in]     pState     points to the state buffer.
3369:Core/Inc/arm_math.h ****    * @param[in]     blockSize  number of input samples to process per call.
3370:Core/Inc/arm_math.h ****    * @return    The function returns ARM_MATH_SUCCESS if initialization is successful or ARM_MATH_L
3371:Core/Inc/arm_math.h ****    * <code>blockSize</code> is not a multiple of <code>M</code>.
3372:Core/Inc/arm_math.h ****    */
3373:Core/Inc/arm_math.h ****   arm_status arm_fir_decimate_init_q15(
3374:Core/Inc/arm_math.h ****   arm_fir_decimate_instance_q15 * S,
3375:Core/Inc/arm_math.h ****   uint16_t numTaps,
3376:Core/Inc/arm_math.h ****   uint8_t M,
3377:Core/Inc/arm_math.h ****   q15_t * pCoeffs,
3378:Core/Inc/arm_math.h ****   q15_t * pState,
3379:Core/Inc/arm_math.h ****   uint32_t blockSize);
3380:Core/Inc/arm_math.h **** 
3381:Core/Inc/arm_math.h **** 
3382:Core/Inc/arm_math.h ****   /**
3383:Core/Inc/arm_math.h ****    * @brief Processing function for the Q31 FIR decimator.
3384:Core/Inc/arm_math.h ****    * @param[in]  S     points to an instance of the Q31 FIR decimator structure.
3385:Core/Inc/arm_math.h ****    * @param[in]  pSrc  points to the block of input data.
3386:Core/Inc/arm_math.h ****    * @param[out] pDst  points to the block of output data
3387:Core/Inc/arm_math.h ****    * @param[in] blockSize number of input samples to process per call.
3388:Core/Inc/arm_math.h ****    */
3389:Core/Inc/arm_math.h ****   void arm_fir_decimate_q31(
3390:Core/Inc/arm_math.h ****   const arm_fir_decimate_instance_q31 * S,
ARM GAS  /tmp/ccpEjOub.s 			page 64


3391:Core/Inc/arm_math.h ****   q31_t * pSrc,
3392:Core/Inc/arm_math.h ****   q31_t * pDst,
3393:Core/Inc/arm_math.h ****   uint32_t blockSize);
3394:Core/Inc/arm_math.h **** 
3395:Core/Inc/arm_math.h ****   /**
3396:Core/Inc/arm_math.h ****    * @brief Processing function for the Q31 FIR decimator (fast variant) for Cortex-M3 and Cortex-M
3397:Core/Inc/arm_math.h ****    * @param[in]  S          points to an instance of the Q31 FIR decimator structure.
3398:Core/Inc/arm_math.h ****    * @param[in]  pSrc       points to the block of input data.
3399:Core/Inc/arm_math.h ****    * @param[out] pDst       points to the block of output data
3400:Core/Inc/arm_math.h ****    * @param[in]  blockSize  number of input samples to process per call.
3401:Core/Inc/arm_math.h ****    */
3402:Core/Inc/arm_math.h ****   void arm_fir_decimate_fast_q31(
3403:Core/Inc/arm_math.h ****   arm_fir_decimate_instance_q31 * S,
3404:Core/Inc/arm_math.h ****   q31_t * pSrc,
3405:Core/Inc/arm_math.h ****   q31_t * pDst,
3406:Core/Inc/arm_math.h ****   uint32_t blockSize);
3407:Core/Inc/arm_math.h **** 
3408:Core/Inc/arm_math.h **** 
3409:Core/Inc/arm_math.h ****   /**
3410:Core/Inc/arm_math.h ****    * @brief  Initialization function for the Q31 FIR decimator.
3411:Core/Inc/arm_math.h ****    * @param[in,out] S          points to an instance of the Q31 FIR decimator structure.
3412:Core/Inc/arm_math.h ****    * @param[in]     numTaps    number of coefficients in the filter.
3413:Core/Inc/arm_math.h ****    * @param[in]     M          decimation factor.
3414:Core/Inc/arm_math.h ****    * @param[in]     pCoeffs    points to the filter coefficients.
3415:Core/Inc/arm_math.h ****    * @param[in]     pState     points to the state buffer.
3416:Core/Inc/arm_math.h ****    * @param[in]     blockSize  number of input samples to process per call.
3417:Core/Inc/arm_math.h ****    * @return    The function returns ARM_MATH_SUCCESS if initialization is successful or ARM_MATH_L
3418:Core/Inc/arm_math.h ****    * <code>blockSize</code> is not a multiple of <code>M</code>.
3419:Core/Inc/arm_math.h ****    */
3420:Core/Inc/arm_math.h ****   arm_status arm_fir_decimate_init_q31(
3421:Core/Inc/arm_math.h ****   arm_fir_decimate_instance_q31 * S,
3422:Core/Inc/arm_math.h ****   uint16_t numTaps,
3423:Core/Inc/arm_math.h ****   uint8_t M,
3424:Core/Inc/arm_math.h ****   q31_t * pCoeffs,
3425:Core/Inc/arm_math.h ****   q31_t * pState,
3426:Core/Inc/arm_math.h ****   uint32_t blockSize);
3427:Core/Inc/arm_math.h **** 
3428:Core/Inc/arm_math.h **** 
3429:Core/Inc/arm_math.h ****   /**
3430:Core/Inc/arm_math.h ****    * @brief Instance structure for the Q15 FIR interpolator.
3431:Core/Inc/arm_math.h ****    */
3432:Core/Inc/arm_math.h ****   typedef struct
3433:Core/Inc/arm_math.h ****   {
3434:Core/Inc/arm_math.h ****     uint8_t L;                      /**< upsample factor. */
3435:Core/Inc/arm_math.h ****     uint16_t phaseLength;           /**< length of each polyphase filter component. */
3436:Core/Inc/arm_math.h ****     q15_t *pCoeffs;                 /**< points to the coefficient array. The array is of length L*
3437:Core/Inc/arm_math.h ****     q15_t *pState;                  /**< points to the state variable array. The array is of length
3438:Core/Inc/arm_math.h ****   } arm_fir_interpolate_instance_q15;
3439:Core/Inc/arm_math.h **** 
3440:Core/Inc/arm_math.h ****   /**
3441:Core/Inc/arm_math.h ****    * @brief Instance structure for the Q31 FIR interpolator.
3442:Core/Inc/arm_math.h ****    */
3443:Core/Inc/arm_math.h ****   typedef struct
3444:Core/Inc/arm_math.h ****   {
3445:Core/Inc/arm_math.h ****     uint8_t L;                      /**< upsample factor. */
3446:Core/Inc/arm_math.h ****     uint16_t phaseLength;           /**< length of each polyphase filter component. */
3447:Core/Inc/arm_math.h ****     q31_t *pCoeffs;                 /**< points to the coefficient array. The array is of length L*
ARM GAS  /tmp/ccpEjOub.s 			page 65


3448:Core/Inc/arm_math.h ****     q31_t *pState;                  /**< points to the state variable array. The array is of length
3449:Core/Inc/arm_math.h ****   } arm_fir_interpolate_instance_q31;
3450:Core/Inc/arm_math.h **** 
3451:Core/Inc/arm_math.h ****   /**
3452:Core/Inc/arm_math.h ****    * @brief Instance structure for the floating-point FIR interpolator.
3453:Core/Inc/arm_math.h ****    */
3454:Core/Inc/arm_math.h ****   typedef struct
3455:Core/Inc/arm_math.h ****   {
3456:Core/Inc/arm_math.h ****     uint8_t L;                     /**< upsample factor. */
3457:Core/Inc/arm_math.h ****     uint16_t phaseLength;          /**< length of each polyphase filter component. */
3458:Core/Inc/arm_math.h ****     float32_t *pCoeffs;            /**< points to the coefficient array. The array is of length L*p
3459:Core/Inc/arm_math.h ****     float32_t *pState;             /**< points to the state variable array. The array is of length 
3460:Core/Inc/arm_math.h ****   } arm_fir_interpolate_instance_f32;
3461:Core/Inc/arm_math.h **** 
3462:Core/Inc/arm_math.h **** 
3463:Core/Inc/arm_math.h ****   /**
3464:Core/Inc/arm_math.h ****    * @brief Processing function for the Q15 FIR interpolator.
3465:Core/Inc/arm_math.h ****    * @param[in]  S          points to an instance of the Q15 FIR interpolator structure.
3466:Core/Inc/arm_math.h ****    * @param[in]  pSrc       points to the block of input data.
3467:Core/Inc/arm_math.h ****    * @param[out] pDst       points to the block of output data.
3468:Core/Inc/arm_math.h ****    * @param[in]  blockSize  number of input samples to process per call.
3469:Core/Inc/arm_math.h ****    */
3470:Core/Inc/arm_math.h ****   void arm_fir_interpolate_q15(
3471:Core/Inc/arm_math.h ****   const arm_fir_interpolate_instance_q15 * S,
3472:Core/Inc/arm_math.h ****   q15_t * pSrc,
3473:Core/Inc/arm_math.h ****   q15_t * pDst,
3474:Core/Inc/arm_math.h ****   uint32_t blockSize);
3475:Core/Inc/arm_math.h **** 
3476:Core/Inc/arm_math.h **** 
3477:Core/Inc/arm_math.h ****   /**
3478:Core/Inc/arm_math.h ****    * @brief  Initialization function for the Q15 FIR interpolator.
3479:Core/Inc/arm_math.h ****    * @param[in,out] S          points to an instance of the Q15 FIR interpolator structure.
3480:Core/Inc/arm_math.h ****    * @param[in]     L          upsample factor.
3481:Core/Inc/arm_math.h ****    * @param[in]     numTaps    number of filter coefficients in the filter.
3482:Core/Inc/arm_math.h ****    * @param[in]     pCoeffs    points to the filter coefficient buffer.
3483:Core/Inc/arm_math.h ****    * @param[in]     pState     points to the state buffer.
3484:Core/Inc/arm_math.h ****    * @param[in]     blockSize  number of input samples to process per call.
3485:Core/Inc/arm_math.h ****    * @return        The function returns ARM_MATH_SUCCESS if initialization is successful or ARM_MA
3486:Core/Inc/arm_math.h ****    * the filter length <code>numTaps</code> is not a multiple of the interpolation factor <code>L</
3487:Core/Inc/arm_math.h ****    */
3488:Core/Inc/arm_math.h ****   arm_status arm_fir_interpolate_init_q15(
3489:Core/Inc/arm_math.h ****   arm_fir_interpolate_instance_q15 * S,
3490:Core/Inc/arm_math.h ****   uint8_t L,
3491:Core/Inc/arm_math.h ****   uint16_t numTaps,
3492:Core/Inc/arm_math.h ****   q15_t * pCoeffs,
3493:Core/Inc/arm_math.h ****   q15_t * pState,
3494:Core/Inc/arm_math.h ****   uint32_t blockSize);
3495:Core/Inc/arm_math.h **** 
3496:Core/Inc/arm_math.h **** 
3497:Core/Inc/arm_math.h ****   /**
3498:Core/Inc/arm_math.h ****    * @brief Processing function for the Q31 FIR interpolator.
3499:Core/Inc/arm_math.h ****    * @param[in]  S          points to an instance of the Q15 FIR interpolator structure.
3500:Core/Inc/arm_math.h ****    * @param[in]  pSrc       points to the block of input data.
3501:Core/Inc/arm_math.h ****    * @param[out] pDst       points to the block of output data.
3502:Core/Inc/arm_math.h ****    * @param[in]  blockSize  number of input samples to process per call.
3503:Core/Inc/arm_math.h ****    */
3504:Core/Inc/arm_math.h ****   void arm_fir_interpolate_q31(
ARM GAS  /tmp/ccpEjOub.s 			page 66


3505:Core/Inc/arm_math.h ****   const arm_fir_interpolate_instance_q31 * S,
3506:Core/Inc/arm_math.h ****   q31_t * pSrc,
3507:Core/Inc/arm_math.h ****   q31_t * pDst,
3508:Core/Inc/arm_math.h ****   uint32_t blockSize);
3509:Core/Inc/arm_math.h **** 
3510:Core/Inc/arm_math.h **** 
3511:Core/Inc/arm_math.h ****   /**
3512:Core/Inc/arm_math.h ****    * @brief  Initialization function for the Q31 FIR interpolator.
3513:Core/Inc/arm_math.h ****    * @param[in,out] S          points to an instance of the Q31 FIR interpolator structure.
3514:Core/Inc/arm_math.h ****    * @param[in]     L          upsample factor.
3515:Core/Inc/arm_math.h ****    * @param[in]     numTaps    number of filter coefficients in the filter.
3516:Core/Inc/arm_math.h ****    * @param[in]     pCoeffs    points to the filter coefficient buffer.
3517:Core/Inc/arm_math.h ****    * @param[in]     pState     points to the state buffer.
3518:Core/Inc/arm_math.h ****    * @param[in]     blockSize  number of input samples to process per call.
3519:Core/Inc/arm_math.h ****    * @return        The function returns ARM_MATH_SUCCESS if initialization is successful or ARM_MA
3520:Core/Inc/arm_math.h ****    * the filter length <code>numTaps</code> is not a multiple of the interpolation factor <code>L</
3521:Core/Inc/arm_math.h ****    */
3522:Core/Inc/arm_math.h ****   arm_status arm_fir_interpolate_init_q31(
3523:Core/Inc/arm_math.h ****   arm_fir_interpolate_instance_q31 * S,
3524:Core/Inc/arm_math.h ****   uint8_t L,
3525:Core/Inc/arm_math.h ****   uint16_t numTaps,
3526:Core/Inc/arm_math.h ****   q31_t * pCoeffs,
3527:Core/Inc/arm_math.h ****   q31_t * pState,
3528:Core/Inc/arm_math.h ****   uint32_t blockSize);
3529:Core/Inc/arm_math.h **** 
3530:Core/Inc/arm_math.h **** 
3531:Core/Inc/arm_math.h ****   /**
3532:Core/Inc/arm_math.h ****    * @brief Processing function for the floating-point FIR interpolator.
3533:Core/Inc/arm_math.h ****    * @param[in]  S          points to an instance of the floating-point FIR interpolator structure.
3534:Core/Inc/arm_math.h ****    * @param[in]  pSrc       points to the block of input data.
3535:Core/Inc/arm_math.h ****    * @param[out] pDst       points to the block of output data.
3536:Core/Inc/arm_math.h ****    * @param[in]  blockSize  number of input samples to process per call.
3537:Core/Inc/arm_math.h ****    */
3538:Core/Inc/arm_math.h ****   void arm_fir_interpolate_f32(
3539:Core/Inc/arm_math.h ****   const arm_fir_interpolate_instance_f32 * S,
3540:Core/Inc/arm_math.h ****   float32_t * pSrc,
3541:Core/Inc/arm_math.h ****   float32_t * pDst,
3542:Core/Inc/arm_math.h ****   uint32_t blockSize);
3543:Core/Inc/arm_math.h **** 
3544:Core/Inc/arm_math.h **** 
3545:Core/Inc/arm_math.h ****   /**
3546:Core/Inc/arm_math.h ****    * @brief  Initialization function for the floating-point FIR interpolator.
3547:Core/Inc/arm_math.h ****    * @param[in,out] S          points to an instance of the floating-point FIR interpolator structu
3548:Core/Inc/arm_math.h ****    * @param[in]     L          upsample factor.
3549:Core/Inc/arm_math.h ****    * @param[in]     numTaps    number of filter coefficients in the filter.
3550:Core/Inc/arm_math.h ****    * @param[in]     pCoeffs    points to the filter coefficient buffer.
3551:Core/Inc/arm_math.h ****    * @param[in]     pState     points to the state buffer.
3552:Core/Inc/arm_math.h ****    * @param[in]     blockSize  number of input samples to process per call.
3553:Core/Inc/arm_math.h ****    * @return        The function returns ARM_MATH_SUCCESS if initialization is successful or ARM_MA
3554:Core/Inc/arm_math.h ****    * the filter length <code>numTaps</code> is not a multiple of the interpolation factor <code>L</
3555:Core/Inc/arm_math.h ****    */
3556:Core/Inc/arm_math.h ****   arm_status arm_fir_interpolate_init_f32(
3557:Core/Inc/arm_math.h ****   arm_fir_interpolate_instance_f32 * S,
3558:Core/Inc/arm_math.h ****   uint8_t L,
3559:Core/Inc/arm_math.h ****   uint16_t numTaps,
3560:Core/Inc/arm_math.h ****   float32_t * pCoeffs,
3561:Core/Inc/arm_math.h ****   float32_t * pState,
ARM GAS  /tmp/ccpEjOub.s 			page 67


3562:Core/Inc/arm_math.h ****   uint32_t blockSize);
3563:Core/Inc/arm_math.h **** 
3564:Core/Inc/arm_math.h **** 
3565:Core/Inc/arm_math.h ****   /**
3566:Core/Inc/arm_math.h ****    * @brief Instance structure for the high precision Q31 Biquad cascade filter.
3567:Core/Inc/arm_math.h ****    */
3568:Core/Inc/arm_math.h ****   typedef struct
3569:Core/Inc/arm_math.h ****   {
3570:Core/Inc/arm_math.h ****     uint8_t numStages;       /**< number of 2nd order stages in the filter.  Overall order is 2*num
3571:Core/Inc/arm_math.h ****     q63_t *pState;           /**< points to the array of state coefficients.  The array is of lengt
3572:Core/Inc/arm_math.h ****     q31_t *pCoeffs;          /**< points to the array of coefficients.  The array is of length 5*nu
3573:Core/Inc/arm_math.h ****     uint8_t postShift;       /**< additional shift, in bits, applied to each output sample. */
3574:Core/Inc/arm_math.h ****   } arm_biquad_cas_df1_32x64_ins_q31;
3575:Core/Inc/arm_math.h **** 
3576:Core/Inc/arm_math.h **** 
3577:Core/Inc/arm_math.h ****   /**
3578:Core/Inc/arm_math.h ****    * @param[in]  S          points to an instance of the high precision Q31 Biquad cascade filter s
3579:Core/Inc/arm_math.h ****    * @param[in]  pSrc       points to the block of input data.
3580:Core/Inc/arm_math.h ****    * @param[out] pDst       points to the block of output data
3581:Core/Inc/arm_math.h ****    * @param[in]  blockSize  number of samples to process.
3582:Core/Inc/arm_math.h ****    */
3583:Core/Inc/arm_math.h ****   void arm_biquad_cas_df1_32x64_q31(
3584:Core/Inc/arm_math.h ****   const arm_biquad_cas_df1_32x64_ins_q31 * S,
3585:Core/Inc/arm_math.h ****   q31_t * pSrc,
3586:Core/Inc/arm_math.h ****   q31_t * pDst,
3587:Core/Inc/arm_math.h ****   uint32_t blockSize);
3588:Core/Inc/arm_math.h **** 
3589:Core/Inc/arm_math.h **** 
3590:Core/Inc/arm_math.h ****   /**
3591:Core/Inc/arm_math.h ****    * @param[in,out] S          points to an instance of the high precision Q31 Biquad cascade filte
3592:Core/Inc/arm_math.h ****    * @param[in]     numStages  number of 2nd order stages in the filter.
3593:Core/Inc/arm_math.h ****    * @param[in]     pCoeffs    points to the filter coefficients.
3594:Core/Inc/arm_math.h ****    * @param[in]     pState     points to the state buffer.
3595:Core/Inc/arm_math.h ****    * @param[in]     postShift  shift to be applied to the output. Varies according to the coefficie
3596:Core/Inc/arm_math.h ****    */
3597:Core/Inc/arm_math.h ****   void arm_biquad_cas_df1_32x64_init_q31(
3598:Core/Inc/arm_math.h ****   arm_biquad_cas_df1_32x64_ins_q31 * S,
3599:Core/Inc/arm_math.h ****   uint8_t numStages,
3600:Core/Inc/arm_math.h ****   q31_t * pCoeffs,
3601:Core/Inc/arm_math.h ****   q63_t * pState,
3602:Core/Inc/arm_math.h ****   uint8_t postShift);
3603:Core/Inc/arm_math.h **** 
3604:Core/Inc/arm_math.h **** 
3605:Core/Inc/arm_math.h ****   /**
3606:Core/Inc/arm_math.h ****    * @brief Instance structure for the floating-point transposed direct form II Biquad cascade filt
3607:Core/Inc/arm_math.h ****    */
3608:Core/Inc/arm_math.h ****   typedef struct
3609:Core/Inc/arm_math.h ****   {
3610:Core/Inc/arm_math.h ****     uint8_t numStages;         /**< number of 2nd order stages in the filter.  Overall order is 2*n
3611:Core/Inc/arm_math.h ****     float32_t *pState;         /**< points to the array of state coefficients.  The array is of len
3612:Core/Inc/arm_math.h ****     float32_t *pCoeffs;        /**< points to the array of coefficients.  The array is of length 5*
3613:Core/Inc/arm_math.h ****   } arm_biquad_cascade_df2T_instance_f32;
3614:Core/Inc/arm_math.h **** 
3615:Core/Inc/arm_math.h ****   /**
3616:Core/Inc/arm_math.h ****    * @brief Instance structure for the floating-point transposed direct form II Biquad cascade filt
3617:Core/Inc/arm_math.h ****    */
3618:Core/Inc/arm_math.h ****   typedef struct
ARM GAS  /tmp/ccpEjOub.s 			page 68


3619:Core/Inc/arm_math.h ****   {
3620:Core/Inc/arm_math.h ****     uint8_t numStages;         /**< number of 2nd order stages in the filter.  Overall order is 2*n
3621:Core/Inc/arm_math.h ****     float32_t *pState;         /**< points to the array of state coefficients.  The array is of len
3622:Core/Inc/arm_math.h ****     float32_t *pCoeffs;        /**< points to the array of coefficients.  The array is of length 5*
3623:Core/Inc/arm_math.h ****   } arm_biquad_cascade_stereo_df2T_instance_f32;
3624:Core/Inc/arm_math.h **** 
3625:Core/Inc/arm_math.h ****   /**
3626:Core/Inc/arm_math.h ****    * @brief Instance structure for the floating-point transposed direct form II Biquad cascade filt
3627:Core/Inc/arm_math.h ****    */
3628:Core/Inc/arm_math.h ****   typedef struct
3629:Core/Inc/arm_math.h ****   {
3630:Core/Inc/arm_math.h ****     uint8_t numStages;         /**< number of 2nd order stages in the filter.  Overall order is 2*n
3631:Core/Inc/arm_math.h ****     float64_t *pState;         /**< points to the array of state coefficients.  The array is of len
3632:Core/Inc/arm_math.h ****     float64_t *pCoeffs;        /**< points to the array of coefficients.  The array is of length 5*
3633:Core/Inc/arm_math.h ****   } arm_biquad_cascade_df2T_instance_f64;
3634:Core/Inc/arm_math.h **** 
3635:Core/Inc/arm_math.h **** 
3636:Core/Inc/arm_math.h ****   /**
3637:Core/Inc/arm_math.h ****    * @brief Processing function for the floating-point transposed direct form II Biquad cascade fil
3638:Core/Inc/arm_math.h ****    * @param[in]  S          points to an instance of the filter data structure.
3639:Core/Inc/arm_math.h ****    * @param[in]  pSrc       points to the block of input data.
3640:Core/Inc/arm_math.h ****    * @param[out] pDst       points to the block of output data
3641:Core/Inc/arm_math.h ****    * @param[in]  blockSize  number of samples to process.
3642:Core/Inc/arm_math.h ****    */
3643:Core/Inc/arm_math.h ****   void arm_biquad_cascade_df2T_f32(
3644:Core/Inc/arm_math.h ****   const arm_biquad_cascade_df2T_instance_f32 * S,
3645:Core/Inc/arm_math.h ****   float32_t * pSrc,
3646:Core/Inc/arm_math.h ****   float32_t * pDst,
3647:Core/Inc/arm_math.h ****   uint32_t blockSize);
3648:Core/Inc/arm_math.h **** 
3649:Core/Inc/arm_math.h **** 
3650:Core/Inc/arm_math.h ****   /**
3651:Core/Inc/arm_math.h ****    * @brief Processing function for the floating-point transposed direct form II Biquad cascade fil
3652:Core/Inc/arm_math.h ****    * @param[in]  S          points to an instance of the filter data structure.
3653:Core/Inc/arm_math.h ****    * @param[in]  pSrc       points to the block of input data.
3654:Core/Inc/arm_math.h ****    * @param[out] pDst       points to the block of output data
3655:Core/Inc/arm_math.h ****    * @param[in]  blockSize  number of samples to process.
3656:Core/Inc/arm_math.h ****    */
3657:Core/Inc/arm_math.h ****   void arm_biquad_cascade_stereo_df2T_f32(
3658:Core/Inc/arm_math.h ****   const arm_biquad_cascade_stereo_df2T_instance_f32 * S,
3659:Core/Inc/arm_math.h ****   float32_t * pSrc,
3660:Core/Inc/arm_math.h ****   float32_t * pDst,
3661:Core/Inc/arm_math.h ****   uint32_t blockSize);
3662:Core/Inc/arm_math.h **** 
3663:Core/Inc/arm_math.h **** 
3664:Core/Inc/arm_math.h ****   /**
3665:Core/Inc/arm_math.h ****    * @brief Processing function for the floating-point transposed direct form II Biquad cascade fil
3666:Core/Inc/arm_math.h ****    * @param[in]  S          points to an instance of the filter data structure.
3667:Core/Inc/arm_math.h ****    * @param[in]  pSrc       points to the block of input data.
3668:Core/Inc/arm_math.h ****    * @param[out] pDst       points to the block of output data
3669:Core/Inc/arm_math.h ****    * @param[in]  blockSize  number of samples to process.
3670:Core/Inc/arm_math.h ****    */
3671:Core/Inc/arm_math.h ****   void arm_biquad_cascade_df2T_f64(
3672:Core/Inc/arm_math.h ****   const arm_biquad_cascade_df2T_instance_f64 * S,
3673:Core/Inc/arm_math.h ****   float64_t * pSrc,
3674:Core/Inc/arm_math.h ****   float64_t * pDst,
3675:Core/Inc/arm_math.h ****   uint32_t blockSize);
ARM GAS  /tmp/ccpEjOub.s 			page 69


3676:Core/Inc/arm_math.h **** 
3677:Core/Inc/arm_math.h **** 
3678:Core/Inc/arm_math.h ****   /**
3679:Core/Inc/arm_math.h ****    * @brief  Initialization function for the floating-point transposed direct form II Biquad cascad
3680:Core/Inc/arm_math.h ****    * @param[in,out] S          points to an instance of the filter data structure.
3681:Core/Inc/arm_math.h ****    * @param[in]     numStages  number of 2nd order stages in the filter.
3682:Core/Inc/arm_math.h ****    * @param[in]     pCoeffs    points to the filter coefficients.
3683:Core/Inc/arm_math.h ****    * @param[in]     pState     points to the state buffer.
3684:Core/Inc/arm_math.h ****    */
3685:Core/Inc/arm_math.h ****   void arm_biquad_cascade_df2T_init_f32(
3686:Core/Inc/arm_math.h ****   arm_biquad_cascade_df2T_instance_f32 * S,
3687:Core/Inc/arm_math.h ****   uint8_t numStages,
3688:Core/Inc/arm_math.h ****   float32_t * pCoeffs,
3689:Core/Inc/arm_math.h ****   float32_t * pState);
3690:Core/Inc/arm_math.h **** 
3691:Core/Inc/arm_math.h **** 
3692:Core/Inc/arm_math.h ****   /**
3693:Core/Inc/arm_math.h ****    * @brief  Initialization function for the floating-point transposed direct form II Biquad cascad
3694:Core/Inc/arm_math.h ****    * @param[in,out] S          points to an instance of the filter data structure.
3695:Core/Inc/arm_math.h ****    * @param[in]     numStages  number of 2nd order stages in the filter.
3696:Core/Inc/arm_math.h ****    * @param[in]     pCoeffs    points to the filter coefficients.
3697:Core/Inc/arm_math.h ****    * @param[in]     pState     points to the state buffer.
3698:Core/Inc/arm_math.h ****    */
3699:Core/Inc/arm_math.h ****   void arm_biquad_cascade_stereo_df2T_init_f32(
3700:Core/Inc/arm_math.h ****   arm_biquad_cascade_stereo_df2T_instance_f32 * S,
3701:Core/Inc/arm_math.h ****   uint8_t numStages,
3702:Core/Inc/arm_math.h ****   float32_t * pCoeffs,
3703:Core/Inc/arm_math.h ****   float32_t * pState);
3704:Core/Inc/arm_math.h **** 
3705:Core/Inc/arm_math.h **** 
3706:Core/Inc/arm_math.h ****   /**
3707:Core/Inc/arm_math.h ****    * @brief  Initialization function for the floating-point transposed direct form II Biquad cascad
3708:Core/Inc/arm_math.h ****    * @param[in,out] S          points to an instance of the filter data structure.
3709:Core/Inc/arm_math.h ****    * @param[in]     numStages  number of 2nd order stages in the filter.
3710:Core/Inc/arm_math.h ****    * @param[in]     pCoeffs    points to the filter coefficients.
3711:Core/Inc/arm_math.h ****    * @param[in]     pState     points to the state buffer.
3712:Core/Inc/arm_math.h ****    */
3713:Core/Inc/arm_math.h ****   void arm_biquad_cascade_df2T_init_f64(
3714:Core/Inc/arm_math.h ****   arm_biquad_cascade_df2T_instance_f64 * S,
3715:Core/Inc/arm_math.h ****   uint8_t numStages,
3716:Core/Inc/arm_math.h ****   float64_t * pCoeffs,
3717:Core/Inc/arm_math.h ****   float64_t * pState);
3718:Core/Inc/arm_math.h **** 
3719:Core/Inc/arm_math.h **** 
3720:Core/Inc/arm_math.h ****   /**
3721:Core/Inc/arm_math.h ****    * @brief Instance structure for the Q15 FIR lattice filter.
3722:Core/Inc/arm_math.h ****    */
3723:Core/Inc/arm_math.h ****   typedef struct
3724:Core/Inc/arm_math.h ****   {
3725:Core/Inc/arm_math.h ****     uint16_t numStages;                  /**< number of filter stages. */
3726:Core/Inc/arm_math.h ****     q15_t *pState;                       /**< points to the state variable array. The array is of l
3727:Core/Inc/arm_math.h ****     q15_t *pCoeffs;                      /**< points to the coefficient array. The array is of leng
3728:Core/Inc/arm_math.h ****   } arm_fir_lattice_instance_q15;
3729:Core/Inc/arm_math.h **** 
3730:Core/Inc/arm_math.h ****   /**
3731:Core/Inc/arm_math.h ****    * @brief Instance structure for the Q31 FIR lattice filter.
3732:Core/Inc/arm_math.h ****    */
ARM GAS  /tmp/ccpEjOub.s 			page 70


3733:Core/Inc/arm_math.h ****   typedef struct
3734:Core/Inc/arm_math.h ****   {
3735:Core/Inc/arm_math.h ****     uint16_t numStages;                  /**< number of filter stages. */
3736:Core/Inc/arm_math.h ****     q31_t *pState;                       /**< points to the state variable array. The array is of l
3737:Core/Inc/arm_math.h ****     q31_t *pCoeffs;                      /**< points to the coefficient array. The array is of leng
3738:Core/Inc/arm_math.h ****   } arm_fir_lattice_instance_q31;
3739:Core/Inc/arm_math.h **** 
3740:Core/Inc/arm_math.h ****   /**
